00000000  55                push ebp
00000001  89E5              mov ebp,esp
00000003  53                push ebx
00000004  83EC74            sub esp,byte +0x74
00000007  E8C0190000        call 0x19cc
0000000C  81C38C3A0000      add ebx,0x3a8c
00000012  65A114000000      mov eax,[gs:0x14]
00000018  8945F4            mov [ebp-0xc],eax
0000001B  31C0              xor eax,eax
0000001D  8B837C000000      mov eax,[ebx+0x7c]
00000023  8B00              mov eax,[eax]
00000025  8945B0            mov [ebp-0x50],eax
00000028  C745B400000000    mov dword [ebp-0x4c],0x0
0000002F  E8DF050000        call 0x613
00000034  898394000000      mov [ebx+0x94],eax
0000003A  E8630E0000        call 0xea2
0000003F  8B8394000000      mov eax,[ebx+0x94]
00000045  83EC08            sub esp,byte +0x8
00000048  50                push eax
00000049  8D8384000000      lea eax,[ebx+0x84]
0000004F  50                push eax
00000050  E81F030000        call 0x374
00000055  83C410            add esp,byte +0x10
00000058  83EC0C            sub esp,byte +0xc
0000005B  8D8384000000      lea eax,[ebx+0x84]
00000061  50                push eax
00000062  E80B060000        call 0x672
00000067  83C410            add esp,byte +0x10
0000006A  83EC0C            sub esp,byte +0xc
0000006D  8D8340000000      lea eax,[ebx+0x40]
00000073  50                push eax
00000074  E8F9050000        call 0x672
00000079  83C410            add esp,byte +0x10
0000007C  E81D090000        call 0x99e
00000081  E8C6090000        call 0xa4c
00000086  E8A2130000        call 0x142d
0000008B  8B8338000000      mov eax,[ebx+0x38]
00000091  8B4008            mov eax,[eax+0x8]
00000094  83EC08            sub esp,byte +0x8
00000097  50                push eax
00000098  8D8384000000      lea eax,[ebx+0x84]
0000009E  50                push eax
0000009F  E8D0020000        call 0x374
000000A4  83C410            add esp,byte +0x10
000000A7  83EC0C            sub esp,byte +0xc
000000AA  8D8384000000      lea eax,[ebx+0x84]
000000B0  50                push eax
000000B1  E8700A0000        call 0xb26
000000B6  83C410            add esp,byte +0x10
000000B9  8B833C000000      mov eax,[ebx+0x3c]
000000BF  0FB7400E          movzx eax,word [eax+0xe]
000000C3  0FB7C0            movzx eax,ax
000000C6  83EC08            sub esp,byte +0x8
000000C9  50                push eax
000000CA  8D8384000000      lea eax,[ebx+0x84]
000000D0  50                push eax
000000D1  E89E020000        call 0x374
000000D6  83C410            add esp,byte +0x10
000000D9  83EC0C            sub esp,byte +0xc
000000DC  8D8384000000      lea eax,[ebx+0x84]
000000E2  50                push eax
000000E3  E83E0A0000        call 0xb26
000000E8  83C410            add esp,byte +0x10
000000EB  83EC08            sub esp,byte +0x8
000000EE  8D836E000000      lea eax,[ebx+0x6e]
000000F4  50                push eax
000000F5  8D8358000000      lea eax,[ebx+0x58]
000000FB  50                push eax
000000FC  E8A4110000        call 0x12a5
00000101  83C410            add esp,byte +0x10
00000104  83EC08            sub esp,byte +0x8
00000107  50                push eax
00000108  8D8384000000      lea eax,[ebx+0x84]
0000010E  50                push eax
0000010F  E811030000        call 0x425
00000114  83C410            add esp,byte +0x10
00000117  83EC0C            sub esp,byte +0xc
0000011A  50                push eax
0000011B  E8060A0000        call 0xb26
00000120  83C410            add esp,byte +0x10
00000123  83EC08            sub esp,byte +0x8
00000126  8D8358000000      lea eax,[ebx+0x58]
0000012C  50                push eax
0000012D  8D836E000000      lea eax,[ebx+0x6e]
00000133  50                push eax
00000134  E86C110000        call 0x12a5
00000139  83C410            add esp,byte +0x10
0000013C  83EC08            sub esp,byte +0x8
0000013F  50                push eax
00000140  8D8384000000      lea eax,[ebx+0x84]
00000146  50                push eax
00000147  E8D9020000        call 0x425
0000014C  83C410            add esp,byte +0x10
0000014F  83EC0C            sub esp,byte +0xc
00000152  50                push eax
00000153  E8CE090000        call 0xb26
00000158  83C410            add esp,byte +0x10
0000015B  83EC08            sub esp,byte +0x8
0000015E  8D8358000000      lea eax,[ebx+0x58]
00000164  50                push eax
00000165  8D8340000000      lea eax,[ebx+0x40]
0000016B  50                push eax
0000016C  E834110000        call 0x12a5
00000171  83C410            add esp,byte +0x10
00000174  83EC08            sub esp,byte +0x8
00000177  50                push eax
00000178  8D8384000000      lea eax,[ebx+0x84]
0000017E  50                push eax
0000017F  E8A1020000        call 0x425
00000184  83C410            add esp,byte +0x10
00000187  83EC0C            sub esp,byte +0xc
0000018A  50                push eax
0000018B  E896090000        call 0xb26
00000190  83C410            add esp,byte +0x10
00000193  66C745D50000      mov word [ebp-0x2b],0x0
00000199  C745DB54455354    mov dword [ebp-0x25],0x54534554
000001A0  C645DF00          mov byte [ebp-0x21],0x0
000001A4  C745E04E432E49    mov dword [ebp-0x20],0x492e434e
000001AB  66C745E4434F      mov word [ebp-0x1c],0x4f43
000001B1  C645E600          mov byte [ebp-0x1a],0x0
000001B5  8D5588            lea edx,[ebp-0x78]
000001B8  83EC08            sub esp,byte +0x8
000001BB  8D45DB            lea eax,[ebp-0x25]
000001BE  50                push eax
000001BF  83EC20            sub esp,byte +0x20
000001C2  89E0              mov eax,esp
000001C4  8B4DBB            mov ecx,[ebp-0x45]
000001C7  8908              mov [eax],ecx
000001C9  8B4DBF            mov ecx,[ebp-0x41]
000001CC  894804            mov [eax+0x4],ecx
000001CF  8B4DC3            mov ecx,[ebp-0x3d]
000001D2  894808            mov [eax+0x8],ecx
000001D5  8B4DC7            mov ecx,[ebp-0x39]
000001D8  89480C            mov [eax+0xc],ecx
000001DB  8B4DCB            mov ecx,[ebp-0x35]
000001DE  894810            mov [eax+0x10],ecx
000001E1  8B4DCF            mov ecx,[ebp-0x31]
000001E4  894814            mov [eax+0x14],ecx
000001E7  8B4DD3            mov ecx,[ebp-0x2d]
000001EA  894818            mov [eax+0x18],ecx
000001ED  8B4DD7            mov ecx,[ebp-0x29]
000001F0  89481C            mov [eax+0x1c],ecx
000001F3  52                push edx
000001F4  E886120000        call 0x147f
000001F9  83C42C            add esp,byte +0x2c
000001FC  8B4588            mov eax,[ebp-0x78]
000001FF  8945BB            mov [ebp-0x45],eax
00000202  8B458C            mov eax,[ebp-0x74]
00000205  8945BF            mov [ebp-0x41],eax
00000208  8B4590            mov eax,[ebp-0x70]
0000020B  8945C3            mov [ebp-0x3d],eax
0000020E  8B4594            mov eax,[ebp-0x6c]
00000211  8945C7            mov [ebp-0x39],eax
00000214  8B4598            mov eax,[ebp-0x68]
00000217  8945CB            mov [ebp-0x35],eax
0000021A  8B459C            mov eax,[ebp-0x64]
0000021D  8945CF            mov [ebp-0x31],eax
00000220  8B45A0            mov eax,[ebp-0x60]
00000223  8945D3            mov [ebp-0x2d],eax
00000226  8B45A4            mov eax,[ebp-0x5c]
00000229  8945D7            mov [ebp-0x29],eax
0000022C  83EC08            sub esp,byte +0x8
0000022F  8D45BB            lea eax,[ebp-0x45]
00000232  50                push eax
00000233  8D45E7            lea eax,[ebp-0x19]
00000236  50                push eax
00000237  E87C0B0000        call 0xdb8
0000023C  83C410            add esp,byte +0x10
0000023F  83EC0C            sub esp,byte +0xc
00000242  50                push eax
00000243  E8DE080000        call 0xb26
00000248  83C410            add esp,byte +0x10
0000024B  8D5588            lea edx,[ebp-0x78]
0000024E  83EC08            sub esp,byte +0x8
00000251  8D45E0            lea eax,[ebp-0x20]
00000254  50                push eax
00000255  83EC20            sub esp,byte +0x20
00000258  89E0              mov eax,esp
0000025A  8B4DBB            mov ecx,[ebp-0x45]
0000025D  8908              mov [eax],ecx
0000025F  8B4DBF            mov ecx,[ebp-0x41]
00000262  894804            mov [eax+0x4],ecx
00000265  8B4DC3            mov ecx,[ebp-0x3d]
00000268  894808            mov [eax+0x8],ecx
0000026B  8B4DC7            mov ecx,[ebp-0x39]
0000026E  89480C            mov [eax+0xc],ecx
00000271  8B4DCB            mov ecx,[ebp-0x35]
00000274  894810            mov [eax+0x10],ecx
00000277  8B4DCF            mov ecx,[ebp-0x31]
0000027A  894814            mov [eax+0x14],ecx
0000027D  8B4DD3            mov ecx,[ebp-0x2d]
00000280  894818            mov [eax+0x18],ecx
00000283  8B4DD7            mov ecx,[ebp-0x29]
00000286  89481C            mov [eax+0x1c],ecx
00000289  52                push edx
0000028A  E8F0110000        call 0x147f
0000028F  83C42C            add esp,byte +0x2c
00000292  8B4588            mov eax,[ebp-0x78]
00000295  8945BB            mov [ebp-0x45],eax
00000298  8B458C            mov eax,[ebp-0x74]
0000029B  8945BF            mov [ebp-0x41],eax
0000029E  8B4590            mov eax,[ebp-0x70]
000002A1  8945C3            mov [ebp-0x3d],eax
000002A4  8B4594            mov eax,[ebp-0x6c]
000002A7  8945C7            mov [ebp-0x39],eax
000002AA  8B4598            mov eax,[ebp-0x68]
000002AD  8945CB            mov [ebp-0x35],eax
000002B0  8B459C            mov eax,[ebp-0x64]
000002B3  8945CF            mov [ebp-0x31],eax
000002B6  8B45A0            mov eax,[ebp-0x60]
000002B9  8945D3            mov [ebp-0x2d],eax
000002BC  8B45A4            mov eax,[ebp-0x5c]
000002BF  8945D7            mov [ebp-0x29],eax
000002C2  83EC08            sub esp,byte +0x8
000002C5  8D45BB            lea eax,[ebp-0x45]
000002C8  50                push eax
000002C9  8D45E7            lea eax,[ebp-0x19]
000002CC  50                push eax
000002CD  E8E60A0000        call 0xdb8
000002D2  83C410            add esp,byte +0x10
000002D5  83EC0C            sub esp,byte +0xc
000002D8  50                push eax
000002D9  E848080000        call 0xb26
000002DE  83C410            add esp,byte +0x10
000002E1  90                nop
000002E2  8B45F4            mov eax,[ebp-0xc]
000002E5  652B0514000000    sub eax,[dword gs:0x14]
000002EC  7405              jz 0x2f3
000002EE  E8710F0000        call 0x1264
000002F3  8B5DFC            mov ebx,[ebp-0x4]
000002F6  C9                leave
000002F7  C3                ret
000002F8  55                push ebp
000002F9  89E5              mov ebp,esp
000002FB  83EC10            sub esp,byte +0x10
000002FE  E8C5160000        call 0x19c8
00000303  81C295370000      add edx,0x3795
00000309  8B4D0C            mov ecx,[ebp+0xc]
0000030C  89C8              mov eax,ecx
0000030E  C1E002            shl eax,byte 0x2
00000311  01C8              add eax,ecx
00000313  C1E004            shl eax,byte 0x4
00000316  89C1              mov ecx,eax
00000318  8B4508            mov eax,[ebp+0x8]
0000031B  01C8              add eax,ecx
0000031D  8945FC            mov [ebp-0x4],eax
00000320  8B4508            mov eax,[ebp+0x8]
00000323  89829C000000      mov [edx+0x9c],eax
00000329  8B450C            mov eax,[ebp+0xc]
0000032C  8982A0000000      mov [edx+0xa0],eax
00000332  8B55FC            mov edx,[ebp-0x4]
00000335  89D0              mov eax,edx
00000337  89C1              mov ecx,eax
00000339  66BAD403          mov dx,0x3d4
0000033D  B00F              mov al,0xf
0000033F  EE                out dx,al
00000340  89C8              mov eax,ecx
00000342  66BAD503          mov dx,0x3d5
00000346  EE                out dx,al
00000347  66BAD403          mov dx,0x3d4
0000034B  B00E              mov al,0xe
0000034D  EE                out dx,al
0000034E  89C8              mov eax,ecx
00000350  C1E808            shr eax,byte 0x8
00000353  66BAD503          mov dx,0x3d5
00000357  EE                out dx,al
00000358  90                nop
00000359  C9                leave
0000035A  C3                ret
0000035B  55                push ebp
0000035C  89E5              mov ebp,esp
0000035E  E861160000        call 0x19c4
00000363  0535370000        add eax,0x3735
00000368  8B5508            mov edx,[ebp+0x8]
0000036B  899020000000      mov [eax+0x20],edx
00000371  90                nop
00000372  5D                pop ebp
00000373  C3                ret
00000374  55                push ebp
00000375  89E5              mov ebp,esp
00000377  53                push ebx
00000378  83EC10            sub esp,byte +0x10
0000037B  E84C160000        call 0x19cc
00000380  81C318370000      add ebx,0x3718
00000386  8B4508            mov eax,[ebp+0x8]
00000389  83C00A            add eax,byte +0xa
0000038C  C60000            mov byte [eax],0x0
0000038F  C745F409000000    mov dword [ebp-0xc],0x9
00000396  8B4D0C            mov ecx,[ebp+0xc]
00000399  BACDCCCCCC        mov edx,0xcccccccd
0000039E  89C8              mov eax,ecx
000003A0  F7E2              mul edx
000003A2  C1EA03            shr edx,byte 0x3
000003A5  89D0              mov eax,edx
000003A7  C1E002            shl eax,byte 0x2
000003AA  01D0              add eax,edx
000003AC  01C0              add eax,eax
000003AE  29C1              sub ecx,eax
000003B0  89CA              mov edx,ecx
000003B2  8B4DF4            mov ecx,[ebp-0xc]
000003B5  8B4508            mov eax,[ebp+0x8]
000003B8  01C1              add ecx,eax
000003BA  0FB6841324000000  movzx eax,byte [ebx+edx+0x24]
000003C2  8801              mov [ecx],al
000003C4  8B450C            mov eax,[ebp+0xc]
000003C7  BACDCCCCCC        mov edx,0xcccccccd
000003CC  F7E2              mul edx
000003CE  89D0              mov eax,edx
000003D0  C1E803            shr eax,byte 0x3
000003D3  89450C            mov [ebp+0xc],eax
000003D6  836DF401          sub dword [ebp-0xc],byte +0x1
000003DA  837D0C00          cmp dword [ebp+0xc],byte +0x0
000003DE  75B6              jnz 0x396
000003E0  837DF400          cmp dword [ebp-0xc],byte +0x0
000003E4  7837              js 0x41d
000003E6  C745F800000000    mov dword [ebp-0x8],0x0
000003ED  EB21              jmp short 0x410
000003EF  8B55F4            mov edx,[ebp-0xc]
000003F2  8B45F8            mov eax,[ebp-0x8]
000003F5  01D0              add eax,edx
000003F7  8D5001            lea edx,[eax+0x1]
000003FA  8B4508            mov eax,[ebp+0x8]
000003FD  01D0              add eax,edx
000003FF  8B4DF8            mov ecx,[ebp-0x8]
00000402  8B5508            mov edx,[ebp+0x8]
00000405  01CA              add edx,ecx
00000407  0FB600            movzx eax,byte [eax]
0000040A  8802              mov [edx],al
0000040C  8345F801          add dword [ebp-0x8],byte +0x1
00000410  B80A000000        mov eax,0xa
00000415  2B45F4            sub eax,[ebp-0xc]
00000418  3945F8            cmp [ebp-0x8],eax
0000041B  7CD2              jl 0x3ef
0000041D  8B4508            mov eax,[ebp+0x8]
00000420  8B5DFC            mov ebx,[ebp-0x4]
00000423  C9                leave
00000424  C3                ret
00000425  55                push ebp
00000426  89E5              mov ebp,esp
00000428  56                push esi
00000429  53                push ebx
0000042A  83EC10            sub esp,byte +0x10
0000042D  E89A150000        call 0x19cc
00000432  81C366360000      add ebx,0x3666
00000438  8B4508            mov eax,[ebp+0x8]
0000043B  83C00B            add eax,byte +0xb
0000043E  C60000            mov byte [eax],0x0
00000441  C745EC0A000000    mov dword [ebp-0x14],0xa
00000448  8B450C            mov eax,[ebp+0xc]
0000044B  C1E81F            shr eax,byte 0x1f
0000044E  8945F4            mov [ebp-0xc],eax
00000451  837D0C00          cmp dword [ebp+0xc],byte +0x0
00000455  7903              jns 0x45a
00000457  F75D0C            neg dword [ebp+0xc]
0000045A  8B4D0C            mov ecx,[ebp+0xc]
0000045D  BA67666666        mov edx,0x66666667
00000462  89C8              mov eax,ecx
00000464  F7EA              imul edx
00000466  89D0              mov eax,edx
00000468  C1F802            sar eax,byte 0x2
0000046B  89CE              mov esi,ecx
0000046D  C1FE1F            sar esi,byte 0x1f
00000470  29F0              sub eax,esi
00000472  89C2              mov edx,eax
00000474  89D0              mov eax,edx
00000476  C1E002            shl eax,byte 0x2
00000479  01D0              add eax,edx
0000047B  01C0              add eax,eax
0000047D  29C1              sub ecx,eax
0000047F  89CA              mov edx,ecx
00000481  8B4DEC            mov ecx,[ebp-0x14]
00000484  8B4508            mov eax,[ebp+0x8]
00000487  01C1              add ecx,eax
00000489  0FB6841324000000  movzx eax,byte [ebx+edx+0x24]
00000491  8801              mov [ecx],al
00000493  8B4D0C            mov ecx,[ebp+0xc]
00000496  BA67666666        mov edx,0x66666667
0000049B  89C8              mov eax,ecx
0000049D  F7EA              imul edx
0000049F  89D0              mov eax,edx
000004A1  C1F802            sar eax,byte 0x2
000004A4  C1F91F            sar ecx,byte 0x1f
000004A7  89CA              mov edx,ecx
000004A9  29D0              sub eax,edx
000004AB  89450C            mov [ebp+0xc],eax
000004AE  836DEC01          sub dword [ebp-0x14],byte +0x1
000004B2  837D0C00          cmp dword [ebp+0xc],byte +0x0
000004B6  75A2              jnz 0x45a
000004B8  837DF400          cmp dword [ebp-0xc],byte +0x0
000004BC  740F              jz 0x4cd
000004BE  8B55EC            mov edx,[ebp-0x14]
000004C1  8B4508            mov eax,[ebp+0x8]
000004C4  01D0              add eax,edx
000004C6  C6002D            mov byte [eax],0x2d
000004C9  836DEC01          sub dword [ebp-0x14],byte +0x1
000004CD  837DEC00          cmp dword [ebp-0x14],byte +0x0
000004D1  7837              js 0x50a
000004D3  C745F000000000    mov dword [ebp-0x10],0x0
000004DA  EB21              jmp short 0x4fd
000004DC  8B55EC            mov edx,[ebp-0x14]
000004DF  8B45F0            mov eax,[ebp-0x10]
000004E2  01D0              add eax,edx
000004E4  8D5001            lea edx,[eax+0x1]
000004E7  8B4508            mov eax,[ebp+0x8]
000004EA  01D0              add eax,edx
000004EC  8B4DF0            mov ecx,[ebp-0x10]
000004EF  8B5508            mov edx,[ebp+0x8]
000004F2  01CA              add edx,ecx
000004F4  0FB600            movzx eax,byte [eax]
000004F7  8802              mov [edx],al
000004F9  8345F001          add dword [ebp-0x10],byte +0x1
000004FD  B80B000000        mov eax,0xb
00000502  2B45EC            sub eax,[ebp-0x14]
00000505  3945F0            cmp [ebp-0x10],eax
00000508  7CD2              jl 0x4dc
0000050A  8B4508            mov eax,[ebp+0x8]
0000050D  83C410            add esp,byte +0x10
00000510  5B                pop ebx
00000511  5E                pop esi
00000512  5D                pop ebp
00000513  C3                ret
00000514  55                push ebp
00000515  89E5              mov ebp,esp
00000517  53                push ebx
00000518  83EC10            sub esp,byte +0x10
0000051B  E8A4140000        call 0x19c4
00000520  0578350000        add eax,0x3578
00000525  8B5508            mov edx,[ebp+0x8]
00000528  83C202            add edx,byte +0x2
0000052B  C60200            mov byte [edx],0x0
0000052E  C745F801000000    mov dword [ebp-0x8],0x1
00000535  EB25              jmp short 0x55c
00000537  8B550C            mov edx,[ebp+0xc]
0000053A  83E20F            and edx,byte +0xf
0000053D  8B5DF8            mov ebx,[ebp-0x8]
00000540  8B4D08            mov ecx,[ebp+0x8]
00000543  01D9              add ecx,ebx
00000545  0FB6941024000000  movzx edx,byte [eax+edx+0x24]
0000054D  8811              mov [ecx],dl
0000054F  8B550C            mov edx,[ebp+0xc]
00000552  C1EA04            shr edx,byte 0x4
00000555  89550C            mov [ebp+0xc],edx
00000558  836DF801          sub dword [ebp-0x8],byte +0x1
0000055C  837DF800          cmp dword [ebp-0x8],byte +0x0
00000560  79D5              jns 0x537
00000562  90                nop
00000563  90                nop
00000564  8B5DFC            mov ebx,[ebp-0x4]
00000567  C9                leave
00000568  C3                ret
00000569  55                push ebp
0000056A  89E5              mov ebp,esp
0000056C  53                push ebx
0000056D  83EC10            sub esp,byte +0x10
00000570  E84F140000        call 0x19c4
00000575  0523350000        add eax,0x3523
0000057A  8B5508            mov edx,[ebp+0x8]
0000057D  83C204            add edx,byte +0x4
00000580  C60200            mov byte [edx],0x0
00000583  C745F803000000    mov dword [ebp-0x8],0x3
0000058A  EB25              jmp short 0x5b1
0000058C  8B550C            mov edx,[ebp+0xc]
0000058F  83E20F            and edx,byte +0xf
00000592  8B5DF8            mov ebx,[ebp-0x8]
00000595  8B4D08            mov ecx,[ebp+0x8]
00000598  01D9              add ecx,ebx
0000059A  0FB6941024000000  movzx edx,byte [eax+edx+0x24]
000005A2  8811              mov [ecx],dl
000005A4  8B550C            mov edx,[ebp+0xc]
000005A7  C1EA04            shr edx,byte 0x4
000005AA  89550C            mov [ebp+0xc],edx
000005AD  836DF801          sub dword [ebp-0x8],byte +0x1
000005B1  837DF800          cmp dword [ebp-0x8],byte +0x0
000005B5  79D5              jns 0x58c
000005B7  90                nop
000005B8  90                nop
000005B9  8B5DFC            mov ebx,[ebp-0x4]
000005BC  C9                leave
000005BD  C3                ret
000005BE  55                push ebp
000005BF  89E5              mov ebp,esp
000005C1  53                push ebx
000005C2  83EC10            sub esp,byte +0x10
000005C5  E8FA130000        call 0x19c4
000005CA  05CE340000        add eax,0x34ce
000005CF  8B5508            mov edx,[ebp+0x8]
000005D2  83C208            add edx,byte +0x8
000005D5  C60200            mov byte [edx],0x0
000005D8  C745F807000000    mov dword [ebp-0x8],0x7
000005DF  EB25              jmp short 0x606
000005E1  8B550C            mov edx,[ebp+0xc]
000005E4  83E20F            and edx,byte +0xf
000005E7  8B5DF8            mov ebx,[ebp-0x8]
000005EA  8B4D08            mov ecx,[ebp+0x8]
000005ED  01D9              add ecx,ebx
000005EF  0FB6941024000000  movzx edx,byte [eax+edx+0x24]
000005F7  8811              mov [ecx],dl
000005F9  8B550C            mov edx,[ebp+0xc]
000005FC  C1EA04            shr edx,byte 0x4
000005FF  89550C            mov [ebp+0xc],edx
00000602  836DF801          sub dword [ebp-0x8],byte +0x1
00000606  837DF800          cmp dword [ebp-0x8],byte +0x0
0000060A  79D5              jns 0x5e1
0000060C  90                nop
0000060D  90                nop
0000060E  8B5DFC            mov ebx,[ebp-0x4]
00000611  C9                leave
00000612  C3                ret
00000613  55                push ebp
00000614  89E5              mov ebp,esp
00000616  83EC10            sub esp,byte +0x10
00000619  E8A6130000        call 0x19c4
0000061E  057A340000        add eax,0x347a
00000623  C745F802000000    mov dword [ebp-0x8],0x2
0000062A  C745FC00002700    mov dword [ebp-0x4],0x270000
00000631  8B88A4000000      mov ecx,[eax+0xa4]
00000637  8B55FC            mov edx,[ebp-0x4]
0000063A  01CA              add edx,ecx
0000063C  C6021E            mov byte [edx],0x1e
0000063F  EB19              jmp short 0x65a
00000641  8145FC00001000    add dword [ebp-0x4],0x100000
00000648  8B88A4000000      mov ecx,[eax+0xa4]
0000064E  8B55FC            mov edx,[ebp-0x4]
00000651  01CA              add edx,ecx
00000653  C6021E            mov byte [edx],0x1e
00000656  8345F801          add dword [ebp-0x8],byte +0x1
0000065A  8B88A4000000      mov ecx,[eax+0xa4]
00000660  8B55FC            mov edx,[ebp-0x4]
00000663  01CA              add edx,ecx
00000665  0FB612            movzx edx,byte [edx]
00000668  80FA1E            cmp dl,0x1e
0000066B  74D4              jz 0x641
0000066D  8B45F8            mov eax,[ebp-0x8]
00000670  C9                leave
00000671  C3                ret
00000672  55                push ebp
00000673  89E5              mov ebp,esp
00000675  56                push esi
00000676  53                push ebx
00000677  83EC20            sub esp,byte +0x20
0000067A  E845130000        call 0x19c4
0000067F  0519340000        add eax,0x3419
00000684  C745E000000000    mov dword [ebp-0x20],0x0
0000068B  8B88A0000000      mov ecx,[eax+0xa0]
00000691  89CA              mov edx,ecx
00000693  C1E202            shl edx,byte 0x2
00000696  01CA              add edx,ecx
00000698  C1E204            shl edx,byte 0x4
0000069B  89D1              mov ecx,edx
0000069D  8B909C000000      mov edx,[eax+0x9c]
000006A3  01CA              add edx,ecx
000006A5  01D2              add edx,edx
000006A7  8955E4            mov [ebp-0x1c],edx
000006AA  8D9020000000      lea edx,[eax+0x20]
000006B0  8955F0            mov [ebp-0x10],edx
000006B3  E960010000        jmp 0x818
000006B8  8B4DE0            mov ecx,[ebp-0x20]
000006BB  8B5508            mov edx,[ebp+0x8]
000006BE  01CA              add edx,ecx
000006C0  0FB612            movzx edx,byte [edx]
000006C3  80FA0A            cmp dl,0xa
000006C6  744F              jz 0x717
000006C8  8B4DE0            mov ecx,[ebp-0x20]
000006CB  8B5508            mov edx,[ebp+0x8]
000006CE  01CA              add edx,ecx
000006D0  8B980C000000      mov ebx,[eax+0xc]
000006D6  8B4DE0            mov ecx,[ebp-0x20]
000006D9  8D3409            lea esi,[ecx+ecx]
000006DC  8B4DE4            mov ecx,[ebp-0x1c]
000006DF  01F1              add ecx,esi
000006E1  01D9              add ecx,ebx
000006E3  0FB612            movzx edx,byte [edx]
000006E6  8811              mov [ecx],dl
000006E8  8B880C000000      mov ecx,[eax+0xc]
000006EE  8B55E0            mov edx,[ebp-0x20]
000006F1  8D1C12            lea ebx,[edx+edx]
000006F4  8B55E4            mov edx,[ebp-0x1c]
000006F7  01DA              add edx,ebx
000006F9  83C201            add edx,byte +0x1
000006FC  01D1              add ecx,edx
000006FE  8B55F0            mov edx,[ebp-0x10]
00000701  0FB612            movzx edx,byte [edx]
00000704  8811              mov [ecx],dl
00000706  8B909C000000      mov edx,[eax+0x9c]
0000070C  83C201            add edx,byte +0x1
0000070F  89909C000000      mov [eax+0x9c],edx
00000715  EB44              jmp short 0x75b
00000717  C7809C0000000000  mov dword [eax+0x9c],0x0
         -0000
00000721  8B90A0000000      mov edx,[eax+0xa0]
00000727  83C201            add edx,byte +0x1
0000072A  8990A0000000      mov [eax+0xa0],edx
00000730  8B88A0000000      mov ecx,[eax+0xa0]
00000736  89CA              mov edx,ecx
00000738  C1E202            shl edx,byte 0x2
0000073B  01CA              add edx,ecx
0000073D  C1E204            shl edx,byte 0x4
00000740  89D1              mov ecx,edx
00000742  8B909C000000      mov edx,[eax+0x9c]
00000748  01CA              add edx,ecx
0000074A  8D0C12            lea ecx,[edx+edx]
0000074D  8B55E0            mov edx,[ebp-0x20]
00000750  01D2              add edx,edx
00000752  89D3              mov ebx,edx
00000754  29D9              sub ecx,ebx
00000756  89CA              mov edx,ecx
00000758  8955E4            mov [ebp-0x1c],edx
0000075B  8345E001          add dword [ebp-0x20],byte +0x1
0000075F  8B909C000000      mov edx,[eax+0x9c]
00000765  83FA50            cmp edx,byte +0x50
00000768  7519              jnz 0x783
0000076A  C7809C0000000000  mov dword [eax+0x9c],0x0
         -0000
00000774  8B90A0000000      mov edx,[eax+0xa0]
0000077A  83C201            add edx,byte +0x1
0000077D  8990A0000000      mov [eax+0xa0],edx
00000783  8B90A0000000      mov edx,[eax+0xa0]
00000789  83FA19            cmp edx,byte +0x19
0000078C  0F8586000000      jnz near 0x818
00000792  C780A00000001800  mov dword [eax+0xa0],0x18
         -0000
0000079C  8B900C000000      mov edx,[eax+0xc]
000007A2  8955F4            mov [ebp-0xc],edx
000007A5  C745E800000000    mov dword [ebp-0x18],0x0
000007AC  EB29              jmp short 0x7d7
000007AE  8B55E8            mov edx,[ebp-0x18]
000007B1  83C228            add edx,byte +0x28
000007B4  8D0C9500000000    lea ecx,[edx*4+0x0]
000007BB  8B55F4            mov edx,[ebp-0xc]
000007BE  01CA              add edx,ecx
000007C0  8B4DE8            mov ecx,[ebp-0x18]
000007C3  8D1C8D00000000    lea ebx,[ecx*4+0x0]
000007CA  8B4DF4            mov ecx,[ebp-0xc]
000007CD  01D9              add ecx,ebx
000007CF  8B12              mov edx,[edx]
000007D1  8911              mov [ecx],edx
000007D3  8345E801          add dword [ebp-0x18],byte +0x1
000007D7  817DE8BF030000    cmp dword [ebp-0x18],0x3bf
000007DE  7ECE              jng 0x7ae
000007E0  C745ECC0030000    mov dword [ebp-0x14],0x3c0
000007E7  EB19              jmp short 0x802
000007E9  8B55EC            mov edx,[ebp-0x14]
000007EC  8D0C9500000000    lea ecx,[edx*4+0x0]
000007F3  8B55F4            mov edx,[ebp-0xc]
000007F6  01CA              add edx,ecx
000007F8  C70200070007      mov dword [edx],0x7000700
000007FE  8345EC01          add dword [ebp-0x14],byte +0x1
00000802  817DECE7030000    cmp dword [ebp-0x14],0x3e7
00000809  7EDE              jng 0x7e9
0000080B  BA80070000        mov edx,0x780
00000810  2B55E0            sub edx,[ebp-0x20]
00000813  01D2              add edx,edx
00000815  8955E4            mov [ebp-0x1c],edx
00000818  8B4DE0            mov ecx,[ebp-0x20]
0000081B  8B5508            mov edx,[ebp+0x8]
0000081E  01CA              add edx,ecx
00000820  0FB612            movzx edx,byte [edx]
00000823  84D2              test dl,dl
00000825  0F858DFEFFFF      jnz near 0x6b8
0000082B  8B90A0000000      mov edx,[eax+0xa0]
00000831  8B809C000000      mov eax,[eax+0x9c]
00000837  52                push edx
00000838  50                push eax
00000839  E8BAFAFFFF        call 0x2f8
0000083E  83C408            add esp,byte +0x8
00000841  90                nop
00000842  8D65F8            lea esp,[ebp-0x8]
00000845  5B                pop ebx
00000846  5E                pop esi
00000847  5D                pop ebp
00000848  C3                ret
00000849  55                push ebp
0000084A  89E5              mov ebp,esp
0000084C  E873110000        call 0x19c4
00000851  0547320000        add eax,0x3247
00000856  8B90A8000000      mov edx,[eax+0xa8]
0000085C  83C201            add edx,byte +0x1
0000085F  8990A8000000      mov [eax+0xa8],edx
00000865  90                nop
00000866  5D                pop ebp
00000867  C3                ret
00000868  55                push ebp
00000869  89E5              mov ebp,esp
0000086B  83EC10            sub esp,byte +0x10
0000086E  E851110000        call 0x19c4
00000873  0525320000        add eax,0x3225
00000878  8B88A8000000      mov ecx,[eax+0xa8]
0000087E  8B5508            mov edx,[ebp+0x8]
00000881  01CA              add edx,ecx
00000883  8955FC            mov [ebp-0x4],edx
00000886  90                nop
00000887  8B88A8000000      mov ecx,[eax+0xa8]
0000088D  8B55FC            mov edx,[ebp-0x4]
00000890  39D1              cmp ecx,edx
00000892  72F3              jc 0x887
00000894  90                nop
00000895  90                nop
00000896  C9                leave
00000897  C3                ret
00000898  55                push ebp
00000899  89E5              mov ebp,esp
0000089B  83EC10            sub esp,byte +0x10
0000089E  E821110000        call 0x19c4
000008A3  05F5310000        add eax,0x31f5
000008A8  C745FC00000000    mov dword [ebp-0x4],0x0
000008AF  60                pusha
000008B0  BB04000000        mov ebx,0x4
000008B5  B8E0000000        mov eax,0xe0
000008BA  BAF6010000        mov edx,0x1f6
000008BF  EE                out dx,al
000008C0  BAF7010000        mov edx,0x1f7
000008C5  31C9              xor ecx,ecx
000008C7  B9FFFF0000        mov ecx,0xffff
000008CC  E2FE              loop 0x8cc
000008CE  664B              dec bx
000008D0  740E              jz 0x8e0
000008D2  EC                in al,dx
000008D3  A888              test al,0x88
000008D5  75EE              jnz 0x8c5
000008D7  A840              test al,0x40
000008D9  74EA              jz 0x8c5
000008DB  B801000000        mov eax,0x1
000008E0  61                popa
000008E1  8945FC            mov [ebp-0x4],eax
000008E4  8B45FC            mov eax,[ebp-0x4]
000008E7  C9                leave
000008E8  C3                ret
000008E9  55                push ebp
000008EA  89E5              mov ebp,esp
000008EC  83EC10            sub esp,byte +0x10
000008EF  E8D0100000        call 0x19c4
000008F4  05A4310000        add eax,0x31a4
000008F9  C745FC00000000    mov dword [ebp-0x4],0x0
00000900  60                pusha
00000901  BAF6030000        mov edx,0x3f6
00000906  B802000000        mov eax,0x2
0000090B  EE                out dx,al
0000090C  E887FFFFFF        call 0x898
00000911  85C0              test eax,eax
00000913  0F8480000000      jz near 0x999
00000919  8B4D08            mov ecx,[ebp+0x8]
0000091C  51                push ecx
0000091D  C1E918            shr ecx,byte 0x18
00000920  80C9E0            or cl,0xe0
00000923  BAF6010000        mov edx,0x1f6
00000928  88C8              mov al,cl
0000092A  EE                out dx,al
0000092B  58                pop eax
0000092C  BAF3010000        mov edx,0x1f3
00000931  EE                out dx,al
00000932  C1E808            shr eax,byte 0x8
00000935  BAF4010000        mov edx,0x1f4
0000093A  EE                out dx,al
0000093B  C1E808            shr eax,byte 0x8
0000093E  BAF5010000        mov edx,0x1f5
00000943  EE                out dx,al
00000944  8B450C            mov eax,[ebp+0xc]
00000947  BAF2010000        mov edx,0x1f2
0000094C  EE                out dx,al
0000094D  B0C4              mov al,0xc4
0000094F  BAF7010000        mov edx,0x1f7
00000954  EE                out dx,al
00000955  BAF6030000        mov edx,0x3f6
0000095A  EC                in al,dx
0000095B  A880              test al,0x80
0000095D  75FB              jnz 0x95a
0000095F  BAF7010000        mov edx,0x1f7
00000964  EC                in al,dx
00000965  A808              test al,0x8
00000967  74FB              jz 0x964
00000969  06                push es
0000096A  B810000000        mov eax,0x10
0000096F  8EC0              mov es,eax
00000971  8B7D10            mov edi,[ebp+0x10]
00000974  FC                cld
00000975  8B450C            mov eax,[ebp+0xc]
00000978  C1E008            shl eax,byte 0x8
0000097B  89C1              mov ecx,eax
0000097D  BAF0010000        mov edx,0x1f0
00000982  66F36D            rep insw
00000985  BAF6030000        mov edx,0x3f6
0000098A  B800000000        mov eax,0x0
0000098F  EE                out dx,al
00000990  07                pop es
00000991  61                popa
00000992  C745FC01000000    mov dword [ebp-0x4],0x1
00000999  8B45FC            mov eax,[ebp-0x4]
0000099C  C9                leave
0000099D  C3                ret
0000099E  55                push ebp
0000099F  89E5              mov ebp,esp
000009A1  83EC08            sub esp,byte +0x8
000009A4  E81B100000        call 0x19c4
000009A9  05EF300000        add eax,0x30ef
000009AE  B800002000        mov eax,0x200000
000009B3  50                push eax
000009B4  6A01              push byte +0x1
000009B6  6A00              push byte +0x0
000009B8  E82CFFFFFF        call 0x8e9
000009BD  83C40C            add esp,byte +0xc
000009C0  B800001000        mov eax,0x100000
000009C5  83EC08            sub esp,byte +0x8
000009C8  6800010000        push dword 0x100
000009CD  50                push eax
000009CE  E812010000        call 0xae5
000009D3  83C410            add esp,byte +0x10
000009D6  BA00001000        mov edx,0x100000
000009DB  B800002000        mov eax,0x200000
000009E0  05BE010000        add eax,0x1be
000009E5  83EC04            sub esp,byte +0x4
000009E8  6A40              push byte +0x40
000009EA  52                push edx
000009EB  50                push eax
000009EC  E806000000        call 0x9f7
000009F1  83C410            add esp,byte +0x10
000009F4  90                nop
000009F5  C9                leave
000009F6  C3                ret
000009F7  55                push ebp
000009F8  89E5              mov ebp,esp
000009FA  56                push esi
000009FB  53                push ebx
000009FC  83EC10            sub esp,byte +0x10
000009FF  E8C00F0000        call 0x19c4
00000A04  0594300000        add eax,0x3094
00000A09  C745F400000000    mov dword [ebp-0xc],0x0
00000A10  EB29              jmp short 0xa3b
00000A12  8B90A4000000      mov edx,[eax+0xa4]
00000A18  8B5D08            mov ebx,[ebp+0x8]
00000A1B  8B4DF4            mov ecx,[ebp-0xc]
00000A1E  01D9              add ecx,ebx
00000A20  01CA              add edx,ecx
00000A22  8B88A4000000      mov ecx,[eax+0xa4]
00000A28  8B750C            mov esi,[ebp+0xc]
00000A2B  8B5DF4            mov ebx,[ebp-0xc]
00000A2E  01F3              add ebx,esi
00000A30  01D9              add ecx,ebx
00000A32  0FB612            movzx edx,byte [edx]
00000A35  8811              mov [ecx],dl
00000A37  8345F401          add dword [ebp-0xc],byte +0x1
00000A3B  8B55F4            mov edx,[ebp-0xc]
00000A3E  3B5510            cmp edx,[ebp+0x10]
00000A41  72CF              jc 0xa12
00000A43  90                nop
00000A44  90                nop
00000A45  83C410            add esp,byte +0x10
00000A48  5B                pop ebx
00000A49  5E                pop esi
00000A4A  5D                pop ebp
00000A4B  C3                ret
00000A4C  55                push ebp
00000A4D  89E5              mov ebp,esp
00000A4F  53                push ebx
00000A50  83EC14            sub esp,byte +0x14
00000A53  E8740F0000        call 0x19cc
00000A58  81C340300000      add ebx,0x3040
00000A5E  B800011000        mov eax,0x100100
00000A63  83EC08            sub esp,byte +0x8
00000A66  6800040000        push dword 0x400
00000A6B  50                push eax
00000A6C  E874000000        call 0xae5
00000A71  83C410            add esp,byte +0x10
00000A74  C745F000000000    mov dword [ebp-0x10],0x0
00000A7B  EB5B              jmp short 0xad8
00000A7D  8B9338000000      mov edx,[ebx+0x38]
00000A83  8B45F0            mov eax,[ebp-0x10]
00000A86  C1E004            shl eax,byte 0x4
00000A89  01D0              add eax,edx
00000A8B  8B4008            mov eax,[eax+0x8]
00000A8E  8945F4            mov [ebp-0xc],eax
00000A91  837DF400          cmp dword [ebp-0xc],byte +0x0
00000A95  7E3D              jng 0xad4
00000A97  BA00002000        mov edx,0x200000
00000A9C  8B45F4            mov eax,[ebp-0xc]
00000A9F  83EC04            sub esp,byte +0x4
00000AA2  52                push edx
00000AA3  6A01              push byte +0x1
00000AA5  50                push eax
00000AA6  E83EFEFFFF        call 0x8e9
00000AAB  83C410            add esp,byte +0x10
00000AAE  8B45F0            mov eax,[ebp-0x10]
00000AB1  C1E006            shl eax,byte 0x6
00000AB4  89C2              mov edx,eax
00000AB6  B800011000        mov eax,0x100100
00000ABB  01C2              add edx,eax
00000ABD  B800002000        mov eax,0x200000
00000AC2  83C003            add eax,byte +0x3
00000AC5  83EC04            sub esp,byte +0x4
00000AC8  6A3B              push byte +0x3b
00000ACA  52                push edx
00000ACB  50                push eax
00000ACC  E826FFFFFF        call 0x9f7
00000AD1  83C410            add esp,byte +0x10
00000AD4  8345F001          add dword [ebp-0x10],byte +0x1
00000AD8  837DF00F          cmp dword [ebp-0x10],byte +0xf
00000ADC  7E9F              jng 0xa7d
00000ADE  90                nop
00000ADF  90                nop
00000AE0  8B5DFC            mov ebx,[ebp-0x4]
00000AE3  C9                leave
00000AE4  C3                ret
00000AE5  55                push ebp
00000AE6  89E5              mov ebp,esp
00000AE8  53                push ebx
00000AE9  83EC10            sub esp,byte +0x10
00000AEC  E8D70E0000        call 0x19c8
00000AF1  81C2A72F0000      add edx,0x2fa7
00000AF7  C745F800000000    mov dword [ebp-0x8],0x0
00000AFE  EB17              jmp short 0xb17
00000B00  8B82A4000000      mov eax,[edx+0xa4]
00000B06  8B5DF8            mov ebx,[ebp-0x8]
00000B09  8B4D08            mov ecx,[ebp+0x8]
00000B0C  01D9              add ecx,ebx
00000B0E  01C8              add eax,ecx
00000B10  C60000            mov byte [eax],0x0
00000B13  8345F801          add dword [ebp-0x8],byte +0x1
00000B17  8B45F8            mov eax,[ebp-0x8]
00000B1A  39450C            cmp [ebp+0xc],eax
00000B1D  77E1              ja 0xb00
00000B1F  90                nop
00000B20  90                nop
00000B21  8B5DFC            mov ebx,[ebp-0x4]
00000B24  C9                leave
00000B25  C3                ret
00000B26  55                push ebp
00000B27  89E5              mov ebp,esp
00000B29  53                push ebx
00000B2A  E89D0E0000        call 0x19cc
00000B2F  81C3692F0000      add ebx,0x2f69
00000B35  FF7508            push dword [ebp+0x8]
00000B38  E835FBFFFF        call 0x672
00000B3D  83C404            add esp,byte +0x4
00000B40  8D8371000000      lea eax,[ebx+0x71]
00000B46  50                push eax
00000B47  E826FBFFFF        call 0x672
00000B4C  83C404            add esp,byte +0x4
00000B4F  90                nop
00000B50  8B5DFC            mov ebx,[ebp-0x4]
00000B53  C9                leave
00000B54  C3                ret
00000B55  55                push ebp
00000B56  89E5              mov ebp,esp
00000B58  53                push ebx
00000B59  83EC10            sub esp,byte +0x10
00000B5C  E8630E0000        call 0x19c4
00000B61  05372F0000        add eax,0x2f37
00000B66  C745F000000000    mov dword [ebp-0x10],0x0
00000B6D  837D0C01          cmp dword [ebp+0xc],byte +0x1
00000B71  0F86BA000000      jna near 0xc31
00000B77  8B883C000000      mov ecx,[eax+0x3c]
00000B7D  8B5508            mov edx,[ebp+0x8]
00000B80  C1E206            shl edx,byte 0x6
00000B83  01CA              add edx,ecx
00000B85  0FB6520A          movzx edx,byte [edx+0xa]
00000B89  0FB6D2            movzx edx,dl
00000B8C  8955F4            mov [ebp-0xc],edx
00000B8F  8B883C000000      mov ecx,[eax+0x3c]
00000B95  8B5508            mov edx,[ebp+0x8]
00000B98  C1E206            shl edx,byte 0x6
00000B9B  01CA              add edx,ecx
00000B9D  8B5219            mov edx,[edx+0x19]
00000BA0  8955F8            mov [ebp-0x8],edx
00000BA3  8B883C000000      mov ecx,[eax+0x3c]
00000BA9  8B5508            mov edx,[ebp+0x8]
00000BAC  C1E206            shl edx,byte 0x6
00000BAF  01CA              add edx,ecx
00000BB1  0FB7520B          movzx edx,word [edx+0xb]
00000BB5  0FB7D2            movzx edx,dx
00000BB8  0155F8            add [ebp-0x8],edx
00000BBB  8B883C000000      mov ecx,[eax+0x3c]
00000BC1  8B5508            mov edx,[ebp+0x8]
00000BC4  C1E206            shl edx,byte 0x6
00000BC7  01CA              add edx,ecx
00000BC9  0FB6520D          movzx edx,byte [edx+0xd]
00000BCD  0FB6CA            movzx ecx,dl
00000BD0  8B983C000000      mov ebx,[eax+0x3c]
00000BD6  8B5508            mov edx,[ebp+0x8]
00000BD9  C1E206            shl edx,byte 0x6
00000BDC  01DA              add edx,ebx
00000BDE  0FB75213          movzx edx,word [edx+0x13]
00000BE2  0FB7D2            movzx edx,dx
00000BE5  0FAFD1            imul edx,ecx
00000BE8  0155F8            add [ebp-0x8],edx
00000BEB  8B903C000000      mov edx,[eax+0x3c]
00000BF1  8B4508            mov eax,[ebp+0x8]
00000BF4  C1E006            shl eax,byte 0x6
00000BF7  01D0              add eax,edx
00000BF9  0FB7400E          movzx eax,word [eax+0xe]
00000BFD  66C1E804          shr ax,byte 0x4
00000C01  0FB7C0            movzx eax,ax
00000C04  0145F8            add [ebp-0x8],eax
00000C07  8B450C            mov eax,[ebp+0xc]
00000C0A  8D50FE            lea edx,[eax-0x2]
00000C0D  8B45F4            mov eax,[ebp-0xc]
00000C10  0FAFD0            imul edx,eax
00000C13  8B45F8            mov eax,[ebp-0x8]
00000C16  01D0              add eax,edx
00000C18  8945F8            mov [ebp-0x8],eax
00000C1B  8B55F4            mov edx,[ebp-0xc]
00000C1E  8B45F8            mov eax,[ebp-0x8]
00000C21  FF7510            push dword [ebp+0x10]
00000C24  52                push edx
00000C25  50                push eax
00000C26  E8BEFCFFFF        call 0x8e9
00000C2B  83C40C            add esp,byte +0xc
00000C2E  8945F0            mov [ebp-0x10],eax
00000C31  8B45F0            mov eax,[ebp-0x10]
00000C34  8B5DFC            mov ebx,[ebp-0x4]
00000C37  C9                leave
00000C38  C3                ret
00000C39  55                push ebp
00000C3A  89E5              mov ebp,esp
00000C3C  53                push ebx
00000C3D  83EC10            sub esp,byte +0x10
00000C40  E87F0D0000        call 0x19c4
00000C45  05532E0000        add eax,0x2e53
00000C4A  C745F000000000    mov dword [ebp-0x10],0x0
00000C51  8B883C000000      mov ecx,[eax+0x3c]
00000C57  8B5508            mov edx,[ebp+0x8]
00000C5A  C1E206            shl edx,byte 0x6
00000C5D  01CA              add edx,ecx
00000C5F  8B5219            mov edx,[edx+0x19]
00000C62  8955F4            mov [ebp-0xc],edx
00000C65  8B883C000000      mov ecx,[eax+0x3c]
00000C6B  8B5508            mov edx,[ebp+0x8]
00000C6E  C1E206            shl edx,byte 0x6
00000C71  01CA              add edx,ecx
00000C73  0FB7520B          movzx edx,word [edx+0xb]
00000C77  0FB7D2            movzx edx,dx
00000C7A  0155F4            add [ebp-0xc],edx
00000C7D  8B883C000000      mov ecx,[eax+0x3c]
00000C83  8B5508            mov edx,[ebp+0x8]
00000C86  C1E206            shl edx,byte 0x6
00000C89  01CA              add edx,ecx
00000C8B  0FB6520D          movzx edx,byte [edx+0xd]
00000C8F  0FB6CA            movzx ecx,dl
00000C92  8B983C000000      mov ebx,[eax+0x3c]
00000C98  8B5508            mov edx,[ebp+0x8]
00000C9B  C1E206            shl edx,byte 0x6
00000C9E  01DA              add edx,ebx
00000CA0  0FB75213          movzx edx,word [edx+0x13]
00000CA4  0FB7D2            movzx edx,dx
00000CA7  0FAFD1            imul edx,ecx
00000CAA  0155F4            add [ebp-0xc],edx
00000CAD  8B903C000000      mov edx,[eax+0x3c]
00000CB3  8B4508            mov eax,[ebp+0x8]
00000CB6  C1E006            shl eax,byte 0x6
00000CB9  01D0              add eax,edx
00000CBB  0FB7400E          movzx eax,word [eax+0xe]
00000CBF  66C1E804          shr ax,byte 0x4
00000CC3  0FB7C0            movzx eax,ax
00000CC6  8945F8            mov [ebp-0x8],eax
00000CC9  8B55F8            mov edx,[ebp-0x8]
00000CCC  8B45F4            mov eax,[ebp-0xc]
00000CCF  FF750C            push dword [ebp+0xc]
00000CD2  52                push edx
00000CD3  50                push eax
00000CD4  E810FCFFFF        call 0x8e9
00000CD9  83C40C            add esp,byte +0xc
00000CDC  8945F0            mov [ebp-0x10],eax
00000CDF  8B45F0            mov eax,[ebp-0x10]
00000CE2  8B5DFC            mov ebx,[ebp-0x4]
00000CE5  C9                leave
00000CE6  C3                ret
00000CE7  55                push ebp
00000CE8  89E5              mov ebp,esp
00000CEA  83EC58            sub esp,byte +0x58
00000CED  E8D20C0000        call 0x19c4
00000CF2  05A62D0000        add eax,0x2da6
00000CF7  8B4508            mov eax,[ebp+0x8]
00000CFA  8845B4            mov [ebp-0x4c],al
00000CFD  65A114000000      mov eax,[gs:0x14]
00000D03  8945F4            mov [ebp-0xc],eax
00000D06  31C0              xor eax,eax
00000D08  C745B800000000    mov dword [ebp-0x48],0x0
00000D0F  C745BC00000000    mov dword [ebp-0x44],0x0
00000D16  C745C141424344    mov dword [ebp-0x3f],0x44434241
00000D1D  C745C545464748    mov dword [ebp-0x3b],0x48474645
00000D24  C745C9494A4B4C    mov dword [ebp-0x37],0x4c4b4a49
00000D2B  C745CD4D4E4F50    mov dword [ebp-0x33],0x504f4e4d
00000D32  C745D151525354    mov dword [ebp-0x2f],0x54535251
00000D39  C745D555565758    mov dword [ebp-0x2b],0x58575655
00000D40  C745D9595A3132    mov dword [ebp-0x27],0x32315a59
00000D47  C745DD33343536    mov dword [ebp-0x23],0x36353433
00000D4E  C745E137383930    mov dword [ebp-0x1f],0x30393837
00000D55  C745E521232440    mov dword [ebp-0x1b],0x40242321
00000D5C  C745E92628295E    mov dword [ebp-0x17],0x5e292826
00000D63  C745ED5F7E607B    mov dword [ebp-0x13],0x7b607e5f
00000D6A  66C745F17D2E      mov word [ebp-0xf],0x2e7d
00000D70  C645F300          mov byte [ebp-0xd],0x0
00000D74  EB1D              jmp short 0xd93
00000D76  8D55C1            lea edx,[ebp-0x3f]
00000D79  8B45BC            mov eax,[ebp-0x44]
00000D7C  01D0              add eax,edx
00000D7E  0FB600            movzx eax,byte [eax]
00000D81  3845B4            cmp [ebp-0x4c],al
00000D84  7509              jnz 0xd8f
00000D86  C745B801000000    mov dword [ebp-0x48],0x1
00000D8D  EB13              jmp short 0xda2
00000D8F  8345BC01          add dword [ebp-0x44],byte +0x1
00000D93  8D55C1            lea edx,[ebp-0x3f]
00000D96  8B45BC            mov eax,[ebp-0x44]
00000D99  01D0              add eax,edx
00000D9B  0FB600            movzx eax,byte [eax]
00000D9E  84C0              test al,al
00000DA0  75D4              jnz 0xd76
00000DA2  8B45B8            mov eax,[ebp-0x48]
00000DA5  8B55F4            mov edx,[ebp-0xc]
00000DA8  652B1514000000    sub edx,[dword gs:0x14]
00000DAF  7405              jz 0xdb6
00000DB1  E8AE040000        call 0x1264
00000DB6  C9                leave
00000DB7  C3                ret
00000DB8  55                push ebp
00000DB9  89E5              mov ebp,esp
00000DBB  83EC18            sub esp,byte +0x18
00000DBE  E8010C0000        call 0x19c4
00000DC3  05D52C0000        add eax,0x2cd5
00000DC8  C745EC00000000    mov dword [ebp-0x14],0x0
00000DCF  C745F000000000    mov dword [ebp-0x10],0x0
00000DD6  EB3B              jmp short 0xe13
00000DD8  8B55F0            mov edx,[ebp-0x10]
00000DDB  8B450C            mov eax,[ebp+0xc]
00000DDE  01D0              add eax,edx
00000DE0  0FB600            movzx eax,byte [eax]
00000DE3  0FBEC0            movsx eax,al
00000DE6  83EC0C            sub esp,byte +0xc
00000DE9  50                push eax
00000DEA  E8F8FEFFFF        call 0xce7
00000DEF  83C410            add esp,byte +0x10
00000DF2  85C0              test eax,eax
00000DF4  7419              jz 0xe0f
00000DF6  8B55F0            mov edx,[ebp-0x10]
00000DF9  8B450C            mov eax,[ebp+0xc]
00000DFC  01D0              add eax,edx
00000DFE  8B4DEC            mov ecx,[ebp-0x14]
00000E01  8B5508            mov edx,[ebp+0x8]
00000E04  01CA              add edx,ecx
00000E06  0FB600            movzx eax,byte [eax]
00000E09  8802              mov [edx],al
00000E0B  8345EC01          add dword [ebp-0x14],byte +0x1
00000E0F  8345F001          add dword [ebp-0x10],byte +0x1
00000E13  837DF007          cmp dword [ebp-0x10],byte +0x7
00000E17  7EBF              jng 0xdd8
00000E19  8B450C            mov eax,[ebp+0xc]
00000E1C  83C008            add eax,byte +0x8
00000E1F  0FB600            movzx eax,byte [eax]
00000E22  0FBEC0            movsx eax,al
00000E25  83EC0C            sub esp,byte +0xc
00000E28  50                push eax
00000E29  E8B9FEFFFF        call 0xce7
00000E2E  83C410            add esp,byte +0x10
00000E31  85C0              test eax,eax
00000E33  745D              jz 0xe92
00000E35  8B45EC            mov eax,[ebp-0x14]
00000E38  8D5001            lea edx,[eax+0x1]
00000E3B  8955EC            mov [ebp-0x14],edx
00000E3E  89C2              mov edx,eax
00000E40  8B4508            mov eax,[ebp+0x8]
00000E43  01D0              add eax,edx
00000E45  C6002E            mov byte [eax],0x2e
00000E48  C745F408000000    mov dword [ebp-0xc],0x8
00000E4F  EB3B              jmp short 0xe8c
00000E51  8B55F4            mov edx,[ebp-0xc]
00000E54  8B450C            mov eax,[ebp+0xc]
00000E57  01D0              add eax,edx
00000E59  0FB600            movzx eax,byte [eax]
00000E5C  0FBEC0            movsx eax,al
00000E5F  83EC0C            sub esp,byte +0xc
00000E62  50                push eax
00000E63  E87FFEFFFF        call 0xce7
00000E68  83C410            add esp,byte +0x10
00000E6B  85C0              test eax,eax
00000E6D  7419              jz 0xe88
00000E6F  8B55F4            mov edx,[ebp-0xc]
00000E72  8B450C            mov eax,[ebp+0xc]
00000E75  01D0              add eax,edx
00000E77  8B4DEC            mov ecx,[ebp-0x14]
00000E7A  8B5508            mov edx,[ebp+0x8]
00000E7D  01CA              add edx,ecx
00000E7F  0FB600            movzx eax,byte [eax]
00000E82  8802              mov [edx],al
00000E84  8345EC01          add dword [ebp-0x14],byte +0x1
00000E88  8345F401          add dword [ebp-0xc],byte +0x1
00000E8C  837DF40A          cmp dword [ebp-0xc],byte +0xa
00000E90  7EBF              jng 0xe51
00000E92  8B55EC            mov edx,[ebp-0x14]
00000E95  8B4508            mov eax,[ebp+0x8]
00000E98  01D0              add eax,edx
00000E9A  C60000            mov byte [eax],0x0
00000E9D  8B4508            mov eax,[ebp+0x8]
00000EA0  C9                leave
00000EA1  C3                ret
00000EA2  55                push ebp
00000EA3  89E5              mov ebp,esp
00000EA5  53                push ebx
00000EA6  83EC20            sub esp,byte +0x20
00000EA9  E8160B0000        call 0x19c4
00000EAE  05EA2B0000        add eax,0x2bea
00000EB3  8B9094000000      mov edx,[eax+0x94]
00000EB9  C1E214            shl edx,byte 0x14
00000EBC  B900004000        mov ecx,0x400000
00000EC1  29CA              sub edx,ecx
00000EC3  81EA00000100      sub edx,0x10000
00000EC9  C1EA0C            shr edx,byte 0xc
00000ECC  8955F4            mov [ebp-0xc],edx
00000ECF  8B55F4            mov edx,[ebp-0xc]
00000ED2  C1EA03            shr edx,byte 0x3
00000ED5  8955E4            mov [ebp-0x1c],edx
00000ED8  8B55E4            mov edx,[ebp-0x1c]
00000EDB  8D0CD500000000    lea ecx,[edx*8+0x0]
00000EE2  8B55F4            mov edx,[ebp-0xc]
00000EE5  29CA              sub edx,ecx
00000EE7  8955F8            mov [ebp-0x8],edx
00000EEA  C745E800000000    mov dword [ebp-0x18],0x0
00000EF1  EB19              jmp short 0xf0c
00000EF3  8B90A4000000      mov edx,[eax+0xa4]
00000EF9  BB00051000        mov ebx,0x100500
00000EFE  8B4DE8            mov ecx,[ebp-0x18]
00000F01  01D9              add ecx,ebx
00000F03  01CA              add edx,ecx
00000F05  C60200            mov byte [edx],0x0
00000F08  8345E801          add dword [ebp-0x18],byte +0x1
00000F0C  8B55E8            mov edx,[ebp-0x18]
00000F0F  3955E4            cmp [ebp-0x1c],edx
00000F12  77DF              ja 0xef3
00000F14  837DF800          cmp dword [ebp-0x8],byte +0x0
00000F18  7456              jz 0xf70
00000F1A  C645E301          mov byte [ebp-0x1d],0x1
00000F1E  0FB65DE3          movzx ebx,byte [ebp-0x1d]
00000F22  8B55F8            mov edx,[ebp-0x8]
00000F25  89D1              mov ecx,edx
00000F27  D3E3              shl ebx,cl
00000F29  89DA              mov edx,ebx
00000F2B  8855E3            mov [ebp-0x1d],dl
00000F2E  8B55F8            mov edx,[ebp-0x8]
00000F31  83C201            add edx,byte +0x1
00000F34  8955EC            mov [ebp-0x14],edx
00000F37  EB15              jmp short 0xf4e
00000F39  0FB655E3          movzx edx,byte [ebp-0x1d]
00000F3D  01D2              add edx,edx
00000F3F  89D1              mov ecx,edx
00000F41  0FB655E3          movzx edx,byte [ebp-0x1d]
00000F45  09CA              or edx,ecx
00000F47  8855E3            mov [ebp-0x1d],dl
00000F4A  8345EC01          add dword [ebp-0x14],byte +0x1
00000F4E  837DEC07          cmp dword [ebp-0x14],byte +0x7
00000F52  7EE5              jng 0xf39
00000F54  8B90A4000000      mov edx,[eax+0xa4]
00000F5A  BB00051000        mov ebx,0x100500
00000F5F  8B4DE4            mov ecx,[ebp-0x1c]
00000F62  01D9              add ecx,ebx
00000F64  01D1              add ecx,edx
00000F66  0FB655E3          movzx edx,byte [ebp-0x1d]
00000F6A  8811              mov [ecx],dl
00000F6C  8345E401          add dword [ebp-0x1c],byte +0x1
00000F70  8B55E4            mov edx,[ebp-0x1c]
00000F73  8955F0            mov [ebp-0x10],edx
00000F76  EB19              jmp short 0xf91
00000F78  8B90A4000000      mov edx,[eax+0xa4]
00000F7E  BB00051000        mov ebx,0x100500
00000F83  8B4DF0            mov ecx,[ebp-0x10]
00000F86  01D9              add ecx,ebx
00000F88  01CA              add edx,ecx
00000F8A  C602FF            mov byte [edx],0xff
00000F8D  8345F001          add dword [ebp-0x10],byte +0x1
00000F91  817DF0FFFF0100    cmp dword [ebp-0x10],0x1ffff
00000F98  7EDE              jng 0xf78
00000F9A  C780980000000000  mov dword [eax+0x98],0x0
         -0000
00000FA4  90                nop
00000FA5  8B5DFC            mov ebx,[ebp-0x4]
00000FA8  C9                leave
00000FA9  C3                ret
00000FAA  55                push ebp
00000FAB  89E5              mov ebp,esp
00000FAD  53                push ebx
00000FAE  83EC20            sub esp,byte +0x20
00000FB1  E80E0A0000        call 0x19c4
00000FB6  05E22A0000        add eax,0x2ae2
00000FBB  8B5508            mov edx,[ebp+0x8]
00000FBE  C1EA03            shr edx,byte 0x3
00000FC1  8955F0            mov [ebp-0x10],edx
00000FC4  8B55F0            mov edx,[ebp-0x10]
00000FC7  8D0CD500000000    lea ecx,[edx*8+0x0]
00000FCE  8B5508            mov edx,[ebp+0x8]
00000FD1  29CA              sub edx,ecx
00000FD3  8955F4            mov [ebp-0xc],edx
00000FD6  C645EA01          mov byte [ebp-0x16],0x1
00000FDA  C745EC01000000    mov dword [ebp-0x14],0x1
00000FE1  0FB65DEA          movzx ebx,byte [ebp-0x16]
00000FE5  8B55F4            mov edx,[ebp-0xc]
00000FE8  89D1              mov ecx,edx
00000FEA  D3E3              shl ebx,cl
00000FEC  89DA              mov edx,ebx
00000FEE  8855EA            mov [ebp-0x16],dl
00000FF1  8B80A4000000      mov eax,[eax+0xa4]
00000FF7  B900051000        mov ecx,0x100500
00000FFC  8B55F0            mov edx,[ebp-0x10]
00000FFF  01CA              add edx,ecx
00001001  01D0              add eax,edx
00001003  0FB600            movzx eax,byte [eax]
00001006  8845EB            mov [ebp-0x15],al
00001009  0FB645EB          movzx eax,byte [ebp-0x15]
0000100D  2245EA            and al,[ebp-0x16]
00001010  0FB6C0            movzx eax,al
00001013  8945F8            mov [ebp-0x8],eax
00001016  837DF800          cmp dword [ebp-0x8],byte +0x0
0000101A  7407              jz 0x1023
0000101C  C745EC00000000    mov dword [ebp-0x14],0x0
00001023  8B45EC            mov eax,[ebp-0x14]
00001026  8B5DFC            mov ebx,[ebp-0x4]
00001029  C9                leave
0000102A  C3                ret
0000102B  55                push ebp
0000102C  89E5              mov ebp,esp
0000102E  56                push esi
0000102F  53                push ebx
00001030  83EC10            sub esp,byte +0x10
00001033  E88C090000        call 0x19c4
00001038  05602A0000        add eax,0x2a60
0000103D  8B5508            mov edx,[ebp+0x8]
00001040  C1EA03            shr edx,byte 0x3
00001043  8955F0            mov [ebp-0x10],edx
00001046  8B55F0            mov edx,[ebp-0x10]
00001049  8D0CD500000000    lea ecx,[edx*8+0x0]
00001050  8B5508            mov edx,[ebp+0x8]
00001053  29CA              sub edx,ecx
00001055  8955F4            mov [ebp-0xc],edx
00001058  C645EF01          mov byte [ebp-0x11],0x1
0000105C  0FB65DEF          movzx ebx,byte [ebp-0x11]
00001060  8B55F4            mov edx,[ebp-0xc]
00001063  89D1              mov ecx,edx
00001065  D3E3              shl ebx,cl
00001067  89DA              mov edx,ebx
00001069  8855EF            mov [ebp-0x11],dl
0000106C  8B90A4000000      mov edx,[eax+0xa4]
00001072  BB00051000        mov ebx,0x100500
00001077  8B4DF0            mov ecx,[ebp-0x10]
0000107A  01D9              add ecx,ebx
0000107C  01CA              add edx,ecx
0000107E  0FB60A            movzx ecx,byte [edx]
00001081  0FB655EF          movzx edx,byte [ebp-0x11]
00001085  8B80A4000000      mov eax,[eax+0xa4]
0000108B  BE00051000        mov esi,0x100500
00001090  8B5DF0            mov ebx,[ebp-0x10]
00001093  01F3              add ebx,esi
00001095  01D8              add eax,ebx
00001097  09CA              or edx,ecx
00001099  8810              mov [eax],dl
0000109B  90                nop
0000109C  83C410            add esp,byte +0x10
0000109F  5B                pop ebx
000010A0  5E                pop esi
000010A1  5D                pop ebp
000010A2  C3                ret
000010A3  55                push ebp
000010A4  89E5              mov ebp,esp
000010A6  56                push esi
000010A7  53                push ebx
000010A8  83EC10            sub esp,byte +0x10
000010AB  E814090000        call 0x19c4
000010B0  05E8290000        add eax,0x29e8
000010B5  8B5508            mov edx,[ebp+0x8]
000010B8  C1EA03            shr edx,byte 0x3
000010BB  8955F0            mov [ebp-0x10],edx
000010BE  8B55F0            mov edx,[ebp-0x10]
000010C1  8D0CD500000000    lea ecx,[edx*8+0x0]
000010C8  8B5508            mov edx,[ebp+0x8]
000010CB  29CA              sub edx,ecx
000010CD  8955F4            mov [ebp-0xc],edx
000010D0  C645EF01          mov byte [ebp-0x11],0x1
000010D4  0FB65DEF          movzx ebx,byte [ebp-0x11]
000010D8  8B55F4            mov edx,[ebp-0xc]
000010DB  89D1              mov ecx,edx
000010DD  D3E3              shl ebx,cl
000010DF  89DA              mov edx,ebx
000010E1  8855EF            mov [ebp-0x11],dl
000010E4  F655EF            not byte [ebp-0x11]
000010E7  8B90A4000000      mov edx,[eax+0xa4]
000010ED  BB00051000        mov ebx,0x100500
000010F2  8B4DF0            mov ecx,[ebp-0x10]
000010F5  01D9              add ecx,ebx
000010F7  01CA              add edx,ecx
000010F9  0FB60A            movzx ecx,byte [edx]
000010FC  0FB655EF          movzx edx,byte [ebp-0x11]
00001100  8B80A4000000      mov eax,[eax+0xa4]
00001106  BE00051000        mov esi,0x100500
0000110B  8B5DF0            mov ebx,[ebp-0x10]
0000110E  01F3              add ebx,esi
00001110  01D8              add eax,ebx
00001112  21CA              and edx,ecx
00001114  8810              mov [eax],dl
00001116  90                nop
00001117  83C410            add esp,byte +0x10
0000111A  5B                pop ebx
0000111B  5E                pop esi
0000111C  5D                pop ebp
0000111D  C3                ret
0000111E  55                push ebp
0000111F  89E5              mov ebp,esp
00001121  83EC20            sub esp,byte +0x20
00001124  E89B080000        call 0x19c4
00001129  056F290000        add eax,0x296f
0000112E  8B4508            mov eax,[ebp+0x8]
00001131  C1E80C            shr eax,byte 0xc
00001134  8945EC            mov [ebp-0x14],eax
00001137  8B4508            mov eax,[ebp+0x8]
0000113A  2B45EC            sub eax,[ebp-0x14]
0000113D  C1E00C            shl eax,byte 0xc
00001140  85C0              test eax,eax
00001142  7404              jz 0x1148
00001144  8345EC01          add dword [ebp-0x14],byte +0x1
00001148  C745F000000000    mov dword [ebp-0x10],0x0
0000114F  C745F400000000    mov dword [ebp-0xc],0x0
00001156  EB48              jmp short 0x11a0
00001158  C745F000000000    mov dword [ebp-0x10],0x0
0000115F  8B45F4            mov eax,[ebp-0xc]
00001162  8945F8            mov [ebp-0x8],eax
00001165  EB08              jmp short 0x116f
00001167  8345F001          add dword [ebp-0x10],byte +0x1
0000116B  8345F801          add dword [ebp-0x8],byte +0x1
0000116F  8B45F0            mov eax,[ebp-0x10]
00001172  3B45EC            cmp eax,[ebp-0x14]
00001175  7318              jnc 0x118f
00001177  FF75F8            push dword [ebp-0x8]
0000117A  E82BFEFFFF        call 0xfaa
0000117F  83C404            add esp,byte +0x4
00001182  85C0              test eax,eax
00001184  7409              jz 0x118f
00001186  817DF8FFFF0F00    cmp dword [ebp-0x8],0xfffff
0000118D  76D8              jna 0x1167
0000118F  8B45F0            mov eax,[ebp-0x10]
00001192  3B45EC            cmp eax,[ebp-0x14]
00001195  7309              jnc 0x11a0
00001197  8B45F8            mov eax,[ebp-0x8]
0000119A  83C001            add eax,byte +0x1
0000119D  8945F4            mov [ebp-0xc],eax
000011A0  8B45F0            mov eax,[ebp-0x10]
000011A3  3B45EC            cmp eax,[ebp-0x14]
000011A6  7309              jnc 0x11b1
000011A8  817DF4FFFF0F00    cmp dword [ebp-0xc],0xfffff
000011AF  76A7              jna 0x1158
000011B1  8B45F0            mov eax,[ebp-0x10]
000011B4  3B45EC            cmp eax,[ebp-0x14]
000011B7  7307              jnc 0x11c0
000011B9  B800000000        mov eax,0x0
000011BE  EB29              jmp short 0x11e9
000011C0  C745FC00000000    mov dword [ebp-0x4],0x0
000011C7  EB15              jmp short 0x11de
000011C9  8B55FC            mov edx,[ebp-0x4]
000011CC  8B45F4            mov eax,[ebp-0xc]
000011CF  01D0              add eax,edx
000011D1  50                push eax
000011D2  E854FEFFFF        call 0x102b
000011D7  83C404            add esp,byte +0x4
000011DA  8345FC01          add dword [ebp-0x4],byte +0x1
000011DE  8B45FC            mov eax,[ebp-0x4]
000011E1  3945F0            cmp [ebp-0x10],eax
000011E4  77E3              ja 0x11c9
000011E6  8B45F4            mov eax,[ebp-0xc]
000011E9  C9                leave
000011EA  C3                ret
000011EB  55                push ebp
000011EC  89E5              mov ebp,esp
000011EE  83EC10            sub esp,byte +0x10
000011F1  E8CE070000        call 0x19c4
000011F6  05A2280000        add eax,0x28a2
000011FB  8B450C            mov eax,[ebp+0xc]
000011FE  C1E80C            shr eax,byte 0xc
00001201  8945F8            mov [ebp-0x8],eax
00001204  8B450C            mov eax,[ebp+0xc]
00001207  2B45F8            sub eax,[ebp-0x8]
0000120A  C1E00C            shl eax,byte 0xc
0000120D  85C0              test eax,eax
0000120F  7404              jz 0x1215
00001211  8345F801          add dword [ebp-0x8],byte +0x1
00001215  C745FC00000000    mov dword [ebp-0x4],0x0
0000121C  EB15              jmp short 0x1233
0000121E  8B55FC            mov edx,[ebp-0x4]
00001221  8B4508            mov eax,[ebp+0x8]
00001224  01D0              add eax,edx
00001226  50                push eax
00001227  E877FEFFFF        call 0x10a3
0000122C  83C404            add esp,byte +0x4
0000122F  8345FC01          add dword [ebp-0x4],byte +0x1
00001233  8B45FC            mov eax,[ebp-0x4]
00001236  3945F8            cmp [ebp-0x8],eax
00001239  77E3              ja 0x121e
0000123B  90                nop
0000123C  90                nop
0000123D  C9                leave
0000123E  C3                ret
0000123F  55                push ebp
00001240  89E5              mov ebp,esp
00001242  83EC10            sub esp,byte +0x10
00001245  E87A070000        call 0x19c4
0000124A  054E280000        add eax,0x284e
0000124F  8B4508            mov eax,[ebp+0x8]
00001252  C1E00C            shl eax,byte 0xc
00001255  BA00004000        mov edx,0x400000
0000125A  01D0              add eax,edx
0000125C  8945FC            mov [ebp-0x4],eax
0000125F  8B45FC            mov eax,[ebp-0x4]
00001262  C9                leave
00001263  C3                ret
00001264  55                push ebp
00001265  89E5              mov ebp,esp
00001267  E858070000        call 0x19c4
0000126C  052C280000        add eax,0x282c
00001271  90                nop
00001272  5D                pop ebp
00001273  C3                ret
00001274  55                push ebp
00001275  89E5              mov ebp,esp
00001277  83EC10            sub esp,byte +0x10
0000127A  E845070000        call 0x19c4
0000127F  0519280000        add eax,0x2819
00001284  C745FC00000000    mov dword [ebp-0x4],0x0
0000128B  EB04              jmp short 0x1291
0000128D  8345FC01          add dword [ebp-0x4],byte +0x1
00001291  8B55FC            mov edx,[ebp-0x4]
00001294  8B4508            mov eax,[ebp+0x8]
00001297  01D0              add eax,edx
00001299  0FB600            movzx eax,byte [eax]
0000129C  84C0              test al,al
0000129E  75ED              jnz 0x128d
000012A0  8B45FC            mov eax,[ebp-0x4]
000012A3  C9                leave
000012A4  C3                ret
000012A5  55                push ebp
000012A6  89E5              mov ebp,esp
000012A8  83EC10            sub esp,byte +0x10
000012AB  E814070000        call 0x19c4
000012B0  05E8270000        add eax,0x27e8
000012B5  C745F800000000    mov dword [ebp-0x8],0x0
000012BC  FF7508            push dword [ebp+0x8]
000012BF  E8B0FFFFFF        call 0x1274
000012C4  83C404            add esp,byte +0x4
000012C7  85C0              test eax,eax
000012C9  0F840D010000      jz near 0x13dc
000012CF  FF750C            push dword [ebp+0xc]
000012D2  E89DFFFFFF        call 0x1274
000012D7  83C404            add esp,byte +0x4
000012DA  85C0              test eax,eax
000012DC  0F84FA000000      jz near 0x13dc
000012E2  C745FC00000000    mov dword [ebp-0x4],0x0
000012E9  EB4A              jmp short 0x1335
000012EB  8B55FC            mov edx,[ebp-0x4]
000012EE  8B4508            mov eax,[ebp+0x8]
000012F1  01D0              add eax,edx
000012F3  0FB610            movzx edx,byte [eax]
000012F6  8B4DFC            mov ecx,[ebp-0x4]
000012F9  8B450C            mov eax,[ebp+0xc]
000012FC  01C8              add eax,ecx
000012FE  0FB600            movzx eax,byte [eax]
00001301  38C2              cmp dl,al
00001303  7E09              jng 0x130e
00001305  C745F801000000    mov dword [ebp-0x8],0x1
0000130C  EB45              jmp short 0x1353
0000130E  8B55FC            mov edx,[ebp-0x4]
00001311  8B4508            mov eax,[ebp+0x8]
00001314  01D0              add eax,edx
00001316  0FB610            movzx edx,byte [eax]
00001319  8B4DFC            mov ecx,[ebp-0x4]
0000131C  8B450C            mov eax,[ebp+0xc]
0000131F  01C8              add eax,ecx
00001321  0FB600            movzx eax,byte [eax]
00001324  38C2              cmp dl,al
00001326  7D09              jnl 0x1331
00001328  C745F8FFFFFFFF    mov dword [ebp-0x8],0xffffffff
0000132F  EB22              jmp short 0x1353
00001331  8345FC01          add dword [ebp-0x4],byte +0x1
00001335  8B55FC            mov edx,[ebp-0x4]
00001338  8B4508            mov eax,[ebp+0x8]
0000133B  01D0              add eax,edx
0000133D  0FB600            movzx eax,byte [eax]
00001340  84C0              test al,al
00001342  740F              jz 0x1353
00001344  8B55FC            mov edx,[ebp-0x4]
00001347  8B450C            mov eax,[ebp+0xc]
0000134A  01D0              add eax,edx
0000134C  0FB600            movzx eax,byte [eax]
0000134F  84C0              test al,al
00001351  7598              jnz 0x12eb
00001353  837DF800          cmp dword [ebp-0x8],byte +0x0
00001357  7528              jnz 0x1381
00001359  8B55FC            mov edx,[ebp-0x4]
0000135C  8B4508            mov eax,[ebp+0x8]
0000135F  01D0              add eax,edx
00001361  0FB600            movzx eax,byte [eax]
00001364  84C0              test al,al
00001366  7519              jnz 0x1381
00001368  8B55FC            mov edx,[ebp-0x4]
0000136B  8B450C            mov eax,[ebp+0xc]
0000136E  01D0              add eax,edx
00001370  0FB600            movzx eax,byte [eax]
00001373  84C0              test al,al
00001375  750A              jnz 0x1381
00001377  B800000000        mov eax,0x0
0000137C  E9AA000000        jmp 0x142b
00001381  837DF800          cmp dword [ebp-0x8],byte +0x0
00001385  7525              jnz 0x13ac
00001387  8B55FC            mov edx,[ebp-0x4]
0000138A  8B4508            mov eax,[ebp+0x8]
0000138D  01D0              add eax,edx
0000138F  0FB600            movzx eax,byte [eax]
00001392  84C0              test al,al
00001394  7E16              jng 0x13ac
00001396  8B55FC            mov edx,[ebp-0x4]
00001399  8B450C            mov eax,[ebp+0xc]
0000139C  01D0              add eax,edx
0000139E  0FB600            movzx eax,byte [eax]
000013A1  84C0              test al,al
000013A3  7507              jnz 0x13ac
000013A5  B801000000        mov eax,0x1
000013AA  EB7F              jmp short 0x142b
000013AC  837DF800          cmp dword [ebp-0x8],byte +0x0
000013B0  7525              jnz 0x13d7
000013B2  8B55FC            mov edx,[ebp-0x4]
000013B5  8B4508            mov eax,[ebp+0x8]
000013B8  01D0              add eax,edx
000013BA  0FB600            movzx eax,byte [eax]
000013BD  84C0              test al,al
000013BF  7516              jnz 0x13d7
000013C1  8B55FC            mov edx,[ebp-0x4]
000013C4  8B450C            mov eax,[ebp+0xc]
000013C7  01D0              add eax,edx
000013C9  0FB600            movzx eax,byte [eax]
000013CC  84C0              test al,al
000013CE  7E07              jng 0x13d7
000013D0  B8FFFFFFFF        mov eax,0xffffffff
000013D5  EB54              jmp short 0x142b
000013D7  8B45F8            mov eax,[ebp-0x8]
000013DA  EB4F              jmp short 0x142b
000013DC  FF7508            push dword [ebp+0x8]
000013DF  E890FEFFFF        call 0x1274
000013E4  83C404            add esp,byte +0x4
000013E7  85C0              test eax,eax
000013E9  7E16              jng 0x1401
000013EB  FF750C            push dword [ebp+0xc]
000013EE  E881FEFFFF        call 0x1274
000013F3  83C404            add esp,byte +0x4
000013F6  85C0              test eax,eax
000013F8  7507              jnz 0x1401
000013FA  B801000000        mov eax,0x1
000013FF  EB2A              jmp short 0x142b
00001401  FF7508            push dword [ebp+0x8]
00001404  E86BFEFFFF        call 0x1274
00001409  83C404            add esp,byte +0x4
0000140C  85C0              test eax,eax
0000140E  7516              jnz 0x1426
00001410  FF750C            push dword [ebp+0xc]
00001413  E85CFEFFFF        call 0x1274
00001418  83C404            add esp,byte +0x4
0000141B  85C0              test eax,eax
0000141D  7E07              jng 0x1426
0000141F  B8FFFFFFFF        mov eax,0xffffffff
00001424  EB05              jmp short 0x142b
00001426  B800000000        mov eax,0x0
0000142B  C9                leave
0000142C  C3                ret
0000142D  55                push ebp
0000142E  89E5              mov ebp,esp
00001430  83EC10            sub esp,byte +0x10
00001433  E88C050000        call 0x19c4
00001438  0560260000        add eax,0x2660
0000143D  8B903C000000      mov edx,[eax+0x3c]
00001443  8B4A19            mov ecx,[edx+0x19]
00001446  8B903C000000      mov edx,[eax+0x3c]
0000144C  0FB7520B          movzx edx,word [edx+0xb]
00001450  0FB7D2            movzx edx,dx
00001453  01CA              add edx,ecx
00001455  8955F8            mov [ebp-0x8],edx
00001458  8B803C000000      mov eax,[eax+0x3c]
0000145E  0FB74013          movzx eax,word [eax+0x13]
00001462  0FB7C0            movzx eax,ax
00001465  8945FC            mov [ebp-0x4],eax
00001468  B800751200        mov eax,0x127500
0000146D  50                push eax
0000146E  FF75FC            push dword [ebp-0x4]
00001471  FF75F8            push dword [ebp-0x8]
00001474  E870F4FFFF        call 0x8e9
00001479  83C40C            add esp,byte +0xc
0000147C  90                nop
0000147D  C9                leave
0000147E  C3                ret
0000147F  55                push ebp
00001480  89E5              mov ebp,esp
00001482  83EC78            sub esp,byte +0x78
00001485  E83A050000        call 0x19c4
0000148A  050E260000        add eax,0x260e
0000148F  8B5508            mov edx,[ebp+0x8]
00001492  895594            mov [ebp-0x6c],edx
00001495  8B552C            mov edx,[ebp+0x2c]
00001498  895590            mov [ebp-0x70],edx
0000149B  658B1514000000    mov edx,[dword gs:0x14]
000014A2  8955F4            mov [ebp-0xc],edx
000014A5  31D2              xor edx,edx
000014A7  C645C700          mov byte [ebp-0x39],0x0
000014AB  BA00751200        mov edx,0x127500
000014B0  8955AC            mov [ebp-0x54],edx
000014B3  C745B000000000    mov dword [ebp-0x50],0x0
000014BA  C745B400000000    mov dword [ebp-0x4c],0x0
000014C1  C745B800000000    mov dword [ebp-0x48],0x0
000014C8  8B903C000000      mov edx,[eax+0x3c]
000014CE  0FB6520A          movzx edx,byte [edx+0xa]
000014D2  0FB6D2            movzx edx,dl
000014D5  8955BC            mov [ebp-0x44],edx
000014D8  C165BC09          shl dword [ebp-0x44],byte 0x9
000014DC  0FB75526          movzx edx,word [ebp+0x26]
000014E0  6685D2            test dx,dx
000014E3  0F85EC010000      jnz near 0x16d5
000014E9  8B803C000000      mov eax,[eax+0x3c]
000014EF  0FB7400E          movzx eax,word [eax+0xe]
000014F3  0FB7C0            movzx eax,ax
000014F6  8945B4            mov [ebp-0x4c],eax
000014F9  C165B405          shl dword [ebp-0x4c],byte 0x5
000014FD  FF75B4            push dword [ebp-0x4c]
00001500  E819FCFFFF        call 0x111e
00001505  83C404            add esp,byte +0x4
00001508  8945B8            mov [ebp-0x48],eax
0000150B  FF75B8            push dword [ebp-0x48]
0000150E  E82CFDFFFF        call 0x123f
00001513  83C404            add esp,byte +0x4
00001516  8945B0            mov [ebp-0x50],eax
00001519  FF75B0            push dword [ebp-0x50]
0000151C  6A00              push byte +0x0
0000151E  E816F7FFFF        call 0xc39
00001523  83C408            add esp,byte +0x8
00001526  8B45B0            mov eax,[ebp-0x50]
00001529  8945C0            mov [ebp-0x40],eax
0000152C  C7459C00000000    mov dword [ebp-0x64],0x0
00001533  E96F010000        jmp 0x16a7
00001538  8B459C            mov eax,[ebp-0x64]
0000153B  C1E005            shl eax,byte 0x5
0000153E  89C2              mov edx,eax
00001540  8B45C0            mov eax,[ebp-0x40]
00001543  01D0              add eax,edx
00001545  83EC08            sub esp,byte +0x8
00001548  50                push eax
00001549  8D45E7            lea eax,[ebp-0x19]
0000154C  50                push eax
0000154D  E866F8FFFF        call 0xdb8
00001552  83C410            add esp,byte +0x10
00001555  83EC08            sub esp,byte +0x8
00001558  FF7590            push dword [ebp-0x70]
0000155B  50                push eax
0000155C  E844FDFFFF        call 0x12a5
00001561  83C410            add esp,byte +0x10
00001564  85C0              test eax,eax
00001566  0F8537010000      jnz near 0x16a3
0000156C  8B459C            mov eax,[ebp-0x64]
0000156F  C1E005            shl eax,byte 0x5
00001572  89C2              mov edx,eax
00001574  8B45C0            mov eax,[ebp-0x40]
00001577  01D0              add eax,edx
00001579  0FB6400B          movzx eax,byte [eax+0xb]
0000157D  8845D2            mov [ebp-0x2e],al
00001580  8B459C            mov eax,[ebp-0x64]
00001583  C1E005            shl eax,byte 0x5
00001586  89C2              mov edx,eax
00001588  8B45C0            mov eax,[ebp-0x40]
0000158B  01D0              add eax,edx
0000158D  0FB74014          movzx eax,word [eax+0x14]
00001591  668945DB          mov [ebp-0x25],ax
00001595  8B459C            mov eax,[ebp-0x64]
00001598  C1E005            shl eax,byte 0x5
0000159B  89C2              mov edx,eax
0000159D  8B45C0            mov eax,[ebp-0x40]
000015A0  01D0              add eax,edx
000015A2  0FB7401A          movzx eax,word [eax+0x1a]
000015A6  668945E1          mov [ebp-0x1f],ax
000015AA  8B459C            mov eax,[ebp-0x64]
000015AD  C1E005            shl eax,byte 0x5
000015B0  89C2              mov edx,eax
000015B2  8B45C0            mov eax,[ebp-0x40]
000015B5  01D0              add eax,edx
000015B7  0FB6400D          movzx eax,byte [eax+0xd]
000015BB  8845D4            mov [ebp-0x2c],al
000015BE  8B459C            mov eax,[ebp-0x64]
000015C1  C1E005            shl eax,byte 0x5
000015C4  89C2              mov edx,eax
000015C6  8B45C0            mov eax,[ebp-0x40]
000015C9  01D0              add eax,edx
000015CB  0FB74010          movzx eax,word [eax+0x10]
000015CF  668945D7          mov [ebp-0x29],ax
000015D3  8B459C            mov eax,[ebp-0x64]
000015D6  C1E005            shl eax,byte 0x5
000015D9  89C2              mov edx,eax
000015DB  8B45C0            mov eax,[ebp-0x40]
000015DE  01D0              add eax,edx
000015E0  0FB7400E          movzx eax,word [eax+0xe]
000015E4  668945D5          mov [ebp-0x2b],ax
000015E8  C745A000000000    mov dword [ebp-0x60],0x0
000015EF  EB23              jmp short 0x1614
000015F1  8B459C            mov eax,[ebp-0x64]
000015F4  C1E005            shl eax,byte 0x5
000015F7  89C2              mov edx,eax
000015F9  8B45C0            mov eax,[ebp-0x40]
000015FC  01C2              add edx,eax
000015FE  8B45A0            mov eax,[ebp-0x60]
00001601  01D0              add eax,edx
00001603  0FB600            movzx eax,byte [eax]
00001606  8D4DC7            lea ecx,[ebp-0x39]
00001609  8B55A0            mov edx,[ebp-0x60]
0000160C  01CA              add edx,ecx
0000160E  8802              mov [edx],al
00001610  8345A001          add dword [ebp-0x60],byte +0x1
00001614  837DA00A          cmp dword [ebp-0x60],byte +0xa
00001618  7ED7              jng 0x15f1
0000161A  8B459C            mov eax,[ebp-0x64]
0000161D  C1E005            shl eax,byte 0x5
00001620  89C2              mov edx,eax
00001622  8B45C0            mov eax,[ebp-0x40]
00001625  01D0              add eax,edx
00001627  0FB74012          movzx eax,word [eax+0x12]
0000162B  668945D9          mov [ebp-0x27],ax
0000162F  8B459C            mov eax,[ebp-0x64]
00001632  C1E005            shl eax,byte 0x5
00001635  89C2              mov edx,eax
00001637  8B45C0            mov eax,[ebp-0x40]
0000163A  01D0              add eax,edx
0000163C  8B401C            mov eax,[eax+0x1c]
0000163F  8945E3            mov [ebp-0x1d],eax
00001642  8B459C            mov eax,[ebp-0x64]
00001645  C1E005            shl eax,byte 0x5
00001648  89C2              mov edx,eax
0000164A  8B45C0            mov eax,[ebp-0x40]
0000164D  01D0              add eax,edx
0000164F  0FB74018          movzx eax,word [eax+0x18]
00001653  668945DF          mov [ebp-0x21],ax
00001657  8B459C            mov eax,[ebp-0x64]
0000165A  C1E005            shl eax,byte 0x5
0000165D  89C2              mov edx,eax
0000165F  8B45C0            mov eax,[ebp-0x40]
00001662  01D0              add eax,edx
00001664  0FB74016          movzx eax,word [eax+0x16]
00001668  668945DD          mov [ebp-0x23],ax
0000166C  8B4594            mov eax,[ebp-0x6c]
0000166F  8B55C7            mov edx,[ebp-0x39]
00001672  8910              mov [eax],edx
00001674  8B55CB            mov edx,[ebp-0x35]
00001677  895004            mov [eax+0x4],edx
0000167A  8B55CF            mov edx,[ebp-0x31]
0000167D  895008            mov [eax+0x8],edx
00001680  8B55D3            mov edx,[ebp-0x2d]
00001683  89500C            mov [eax+0xc],edx
00001686  8B55D7            mov edx,[ebp-0x29]
00001689  895010            mov [eax+0x10],edx
0000168C  8B55DB            mov edx,[ebp-0x25]
0000168F  895014            mov [eax+0x14],edx
00001692  8B55DF            mov edx,[ebp-0x21]
00001695  895018            mov [eax+0x18],edx
00001698  8B55E3            mov edx,[ebp-0x1d]
0000169B  89501C            mov [eax+0x1c],edx
0000169E  E988020000        jmp 0x192b
000016A3  83459C01          add dword [ebp-0x64],byte +0x1
000016A7  8B459C            mov eax,[ebp-0x64]
000016AA  C1E005            shl eax,byte 0x5
000016AD  89C2              mov edx,eax
000016AF  8B45C0            mov eax,[ebp-0x40]
000016B2  01D0              add eax,edx
000016B4  0FB600            movzx eax,byte [eax]
000016B7  84C0              test al,al
000016B9  0F8579FEFFFF      jnz near 0x1538
000016BF  83EC08            sub esp,byte +0x8
000016C2  FF75B4            push dword [ebp-0x4c]
000016C5  FF75B8            push dword [ebp-0x48]
000016C8  E81EFBFFFF        call 0x11eb
000016CD  83C410            add esp,byte +0x10
000016D0  E924020000        jmp 0x18f9
000016D5  0FB74526          movzx eax,word [ebp+0x26]
000016D9  66894598          mov [ebp-0x68],ax
000016DD  0FB74598          movzx eax,word [ebp-0x68]
000016E1  8D1400            lea edx,[eax+eax]
000016E4  8B45AC            mov eax,[ebp-0x54]
000016E7  01D0              add eax,edx
000016E9  0FB700            movzx eax,word [eax]
000016EC  6689459A          mov [ebp-0x66],ax
000016F0  83EC0C            sub esp,byte +0xc
000016F3  FF75BC            push dword [ebp-0x44]
000016F6  E823FAFFFF        call 0x111e
000016FB  83C410            add esp,byte +0x10
000016FE  8945B8            mov [ebp-0x48],eax
00001701  83EC0C            sub esp,byte +0xc
00001704  FF75B8            push dword [ebp-0x48]
00001707  E833FBFFFF        call 0x123f
0000170C  83C410            add esp,byte +0x10
0000170F  8945B0            mov [ebp-0x50],eax
00001712  0FB74598          movzx eax,word [ebp-0x68]
00001716  83EC04            sub esp,byte +0x4
00001719  FF75B0            push dword [ebp-0x50]
0000171C  50                push eax
0000171D  6A00              push byte +0x0
0000171F  E831F4FFFF        call 0xb55
00001724  83C410            add esp,byte +0x10
00001727  8B45B0            mov eax,[ebp-0x50]
0000172A  8945C0            mov [ebp-0x40],eax
0000172D  C745A400000000    mov dword [ebp-0x5c],0x0
00001734  E96F010000        jmp 0x18a8
00001739  8B45A4            mov eax,[ebp-0x5c]
0000173C  C1E005            shl eax,byte 0x5
0000173F  89C2              mov edx,eax
00001741  8B45C0            mov eax,[ebp-0x40]
00001744  01D0              add eax,edx
00001746  83EC08            sub esp,byte +0x8
00001749  50                push eax
0000174A  8D45E7            lea eax,[ebp-0x19]
0000174D  50                push eax
0000174E  E865F6FFFF        call 0xdb8
00001753  83C410            add esp,byte +0x10
00001756  83EC08            sub esp,byte +0x8
00001759  FF7590            push dword [ebp-0x70]
0000175C  50                push eax
0000175D  E843FBFFFF        call 0x12a5
00001762  83C410            add esp,byte +0x10
00001765  85C0              test eax,eax
00001767  0F8537010000      jnz near 0x18a4
0000176D  8B45A4            mov eax,[ebp-0x5c]
00001770  C1E005            shl eax,byte 0x5
00001773  89C2              mov edx,eax
00001775  8B45C0            mov eax,[ebp-0x40]
00001778  01D0              add eax,edx
0000177A  0FB6400B          movzx eax,byte [eax+0xb]
0000177E  8845D2            mov [ebp-0x2e],al
00001781  8B45A4            mov eax,[ebp-0x5c]
00001784  C1E005            shl eax,byte 0x5
00001787  89C2              mov edx,eax
00001789  8B45C0            mov eax,[ebp-0x40]
0000178C  01D0              add eax,edx
0000178E  0FB74014          movzx eax,word [eax+0x14]
00001792  668945DB          mov [ebp-0x25],ax
00001796  8B45A4            mov eax,[ebp-0x5c]
00001799  C1E005            shl eax,byte 0x5
0000179C  89C2              mov edx,eax
0000179E  8B45C0            mov eax,[ebp-0x40]
000017A1  01D0              add eax,edx
000017A3  0FB7401A          movzx eax,word [eax+0x1a]
000017A7  668945E1          mov [ebp-0x1f],ax
000017AB  8B45A4            mov eax,[ebp-0x5c]
000017AE  C1E005            shl eax,byte 0x5
000017B1  89C2              mov edx,eax
000017B3  8B45C0            mov eax,[ebp-0x40]
000017B6  01D0              add eax,edx
000017B8  0FB6400D          movzx eax,byte [eax+0xd]
000017BC  8845D4            mov [ebp-0x2c],al
000017BF  8B45A4            mov eax,[ebp-0x5c]
000017C2  C1E005            shl eax,byte 0x5
000017C5  89C2              mov edx,eax
000017C7  8B45C0            mov eax,[ebp-0x40]
000017CA  01D0              add eax,edx
000017CC  0FB74010          movzx eax,word [eax+0x10]
000017D0  668945D7          mov [ebp-0x29],ax
000017D4  8B45A4            mov eax,[ebp-0x5c]
000017D7  C1E005            shl eax,byte 0x5
000017DA  89C2              mov edx,eax
000017DC  8B45C0            mov eax,[ebp-0x40]
000017DF  01D0              add eax,edx
000017E1  0FB7400E          movzx eax,word [eax+0xe]
000017E5  668945D5          mov [ebp-0x2b],ax
000017E9  C745A800000000    mov dword [ebp-0x58],0x0
000017F0  EB23              jmp short 0x1815
000017F2  8B45A4            mov eax,[ebp-0x5c]
000017F5  C1E005            shl eax,byte 0x5
000017F8  89C2              mov edx,eax
000017FA  8B45C0            mov eax,[ebp-0x40]
000017FD  01C2              add edx,eax
000017FF  8B45A8            mov eax,[ebp-0x58]
00001802  01D0              add eax,edx
00001804  0FB600            movzx eax,byte [eax]
00001807  8D4DC7            lea ecx,[ebp-0x39]
0000180A  8B55A8            mov edx,[ebp-0x58]
0000180D  01CA              add edx,ecx
0000180F  8802              mov [edx],al
00001811  8345A801          add dword [ebp-0x58],byte +0x1
00001815  837DA80A          cmp dword [ebp-0x58],byte +0xa
00001819  7ED7              jng 0x17f2
0000181B  8B45A4            mov eax,[ebp-0x5c]
0000181E  C1E005            shl eax,byte 0x5
00001821  89C2              mov edx,eax
00001823  8B45C0            mov eax,[ebp-0x40]
00001826  01D0              add eax,edx
00001828  0FB74012          movzx eax,word [eax+0x12]
0000182C  668945D9          mov [ebp-0x27],ax
00001830  8B45A4            mov eax,[ebp-0x5c]
00001833  C1E005            shl eax,byte 0x5
00001836  89C2              mov edx,eax
00001838  8B45C0            mov eax,[ebp-0x40]
0000183B  01D0              add eax,edx
0000183D  8B401C            mov eax,[eax+0x1c]
00001840  8945E3            mov [ebp-0x1d],eax
00001843  8B45A4            mov eax,[ebp-0x5c]
00001846  C1E005            shl eax,byte 0x5
00001849  89C2              mov edx,eax
0000184B  8B45C0            mov eax,[ebp-0x40]
0000184E  01D0              add eax,edx
00001850  0FB74018          movzx eax,word [eax+0x18]
00001854  668945DF          mov [ebp-0x21],ax
00001858  8B45A4            mov eax,[ebp-0x5c]
0000185B  C1E005            shl eax,byte 0x5
0000185E  89C2              mov edx,eax
00001860  8B45C0            mov eax,[ebp-0x40]
00001863  01D0              add eax,edx
00001865  0FB74016          movzx eax,word [eax+0x16]
00001869  668945DD          mov [ebp-0x23],ax
0000186D  8B4594            mov eax,[ebp-0x6c]
00001870  8B55C7            mov edx,[ebp-0x39]
00001873  8910              mov [eax],edx
00001875  8B55CB            mov edx,[ebp-0x35]
00001878  895004            mov [eax+0x4],edx
0000187B  8B55CF            mov edx,[ebp-0x31]
0000187E  895008            mov [eax+0x8],edx
00001881  8B55D3            mov edx,[ebp-0x2d]
00001884  89500C            mov [eax+0xc],edx
00001887  8B55D7            mov edx,[ebp-0x29]
0000188A  895010            mov [eax+0x10],edx
0000188D  8B55DB            mov edx,[ebp-0x25]
00001890  895014            mov [eax+0x14],edx
00001893  8B55DF            mov edx,[ebp-0x21]
00001896  895018            mov [eax+0x18],edx
00001899  8B55E3            mov edx,[ebp-0x1d]
0000189C  89501C            mov [eax+0x1c],edx
0000189F  E987000000        jmp 0x192b
000018A4  8345A401          add dword [ebp-0x5c],byte +0x1
000018A8  8B45A4            mov eax,[ebp-0x5c]
000018AB  C1E005            shl eax,byte 0x5
000018AE  89C2              mov edx,eax
000018B0  8B45C0            mov eax,[ebp-0x40]
000018B3  01D0              add eax,edx
000018B5  0FB600            movzx eax,byte [eax]
000018B8  84C0              test al,al
000018BA  0F8579FEFFFF      jnz near 0x1739
000018C0  66837D9AFF        cmp word [ebp-0x66],byte -0x1
000018C5  7420              jz 0x18e7
000018C7  0FB7459A          movzx eax,word [ebp-0x66]
000018CB  66894598          mov [ebp-0x68],ax
000018CF  0FB74598          movzx eax,word [ebp-0x68]
000018D3  8D1400            lea edx,[eax+eax]
000018D6  8B45AC            mov eax,[ebp-0x54]
000018D9  01D0              add eax,edx
000018DB  0FB700            movzx eax,word [eax]
000018DE  6689459A          mov [ebp-0x66],ax
000018E2  E92BFEFFFF        jmp 0x1712
000018E7  90                nop
000018E8  83EC08            sub esp,byte +0x8
000018EB  FF75BC            push dword [ebp-0x44]
000018EE  FF75B8            push dword [ebp-0x48]
000018F1  E8F5F8FFFF        call 0x11eb
000018F6  83C410            add esp,byte +0x10
000018F9  8B4594            mov eax,[ebp-0x6c]
000018FC  8B55C7            mov edx,[ebp-0x39]
000018FF  8910              mov [eax],edx
00001901  8B55CB            mov edx,[ebp-0x35]
00001904  895004            mov [eax+0x4],edx
00001907  8B55CF            mov edx,[ebp-0x31]
0000190A  895008            mov [eax+0x8],edx
0000190D  8B55D3            mov edx,[ebp-0x2d]
00001910  89500C            mov [eax+0xc],edx
00001913  8B55D7            mov edx,[ebp-0x29]
00001916  895010            mov [eax+0x10],edx
00001919  8B55DB            mov edx,[ebp-0x25]
0000191C  895014            mov [eax+0x14],edx
0000191F  8B55DF            mov edx,[ebp-0x21]
00001922  895018            mov [eax+0x18],edx
00001925  8B55E3            mov edx,[ebp-0x1d]
00001928  89501C            mov [eax+0x1c],edx
0000192B  8B45F4            mov eax,[ebp-0xc]
0000192E  652B0514000000    sub eax,[dword gs:0x14]
00001935  7405              jz 0x193c
00001937  E828F9FFFF        call 0x1264
0000193C  8B4594            mov eax,[ebp-0x6c]
0000193F  C9                leave
00001940  C20400            ret 0x4
00001943  55                push ebp
00001944  89E5              mov ebp,esp
00001946  83EC48            sub esp,byte +0x48
00001949  E876000000        call 0x19c4
0000194E  054A210000        add eax,0x214a
00001953  8B4508            mov eax,[ebp+0x8]
00001956  8945C4            mov [ebp-0x3c],eax
00001959  8B450C            mov eax,[ebp+0xc]
0000195C  8945C0            mov [ebp-0x40],eax
0000195F  65A114000000      mov eax,[gs:0x14]
00001965  8945F4            mov [ebp-0xc],eax
00001968  31C0              xor eax,eax
0000196A  8B45C4            mov eax,[ebp-0x3c]
0000196D  8B55D4            mov edx,[ebp-0x2c]
00001970  8910              mov [eax],edx
00001972  8B55D8            mov edx,[ebp-0x28]
00001975  895004            mov [eax+0x4],edx
00001978  8B55DC            mov edx,[ebp-0x24]
0000197B  895008            mov [eax+0x8],edx
0000197E  8B55E0            mov edx,[ebp-0x20]
00001981  89500C            mov [eax+0xc],edx
00001984  8B55E4            mov edx,[ebp-0x1c]
00001987  895010            mov [eax+0x10],edx
0000198A  8B55E8            mov edx,[ebp-0x18]
0000198D  895014            mov [eax+0x14],edx
00001990  8B55EC            mov edx,[ebp-0x14]
00001993  895018            mov [eax+0x18],edx
00001996  8B55F0            mov edx,[ebp-0x10]
00001999  89501C            mov [eax+0x1c],edx
0000199C  8B45F4            mov eax,[ebp-0xc]
0000199F  652B0514000000    sub eax,[dword gs:0x14]
000019A6  7405              jz 0x19ad
000019A8  E8B7F8FFFF        call 0x1264
000019AD  8B45C4            mov eax,[ebp-0x3c]
000019B0  C9                leave
000019B1  C20400            ret 0x4
000019B4  55                push ebp
000019B5  89E5              mov ebp,esp
000019B7  E808000000        call 0x19c4
000019BC  05DC200000        add eax,0x20dc
000019C1  90                nop
000019C2  5D                pop ebp
000019C3  C3                ret
000019C4  8B0424            mov eax,[esp]
000019C7  C3                ret
000019C8  8B1424            mov edx,[esp]
000019CB  C3                ret
000019CC  8B1C24            mov ebx,[esp]
000019CF  C3                ret
000019D0  0000              add [eax],al
000019D2  0000              add [eax],al
000019D4  0000              add [eax],al
000019D6  0000              add [eax],al
000019D8  0000              add [eax],al
000019DA  0000              add [eax],al
000019DC  0000              add [eax],al
000019DE  0000              add [eax],al
000019E0  0000              add [eax],al
000019E2  0000              add [eax],al
000019E4  0000              add [eax],al
000019E6  0000              add [eax],al
000019E8  0000              add [eax],al
000019EA  0000              add [eax],al
000019EC  0000              add [eax],al
000019EE  0000              add [eax],al
000019F0  0000              add [eax],al
000019F2  0000              add [eax],al
000019F4  0000              add [eax],al
000019F6  0000              add [eax],al
000019F8  0000              add [eax],al
000019FA  0000              add [eax],al
000019FC  0000              add [eax],al
000019FE  0000              add [eax],al
00001A00  0000              add [eax],al
00001A02  0000              add [eax],al
00001A04  0000              add [eax],al
00001A06  0000              add [eax],al
00001A08  0000              add [eax],al
00001A0A  0000              add [eax],al
00001A0C  0000              add [eax],al
00001A0E  0000              add [eax],al
00001A10  0000              add [eax],al
00001A12  0000              add [eax],al
00001A14  0000              add [eax],al
00001A16  0000              add [eax],al
00001A18  0000              add [eax],al
00001A1A  0000              add [eax],al
00001A1C  0000              add [eax],al
00001A1E  0000              add [eax],al
00001A20  0000              add [eax],al
00001A22  0000              add [eax],al
00001A24  0000              add [eax],al
00001A26  0000              add [eax],al
00001A28  0000              add [eax],al
00001A2A  0000              add [eax],al
00001A2C  0000              add [eax],al
00001A2E  0000              add [eax],al
00001A30  0000              add [eax],al
00001A32  0000              add [eax],al
00001A34  0000              add [eax],al
00001A36  0000              add [eax],al
00001A38  0000              add [eax],al
00001A3A  0000              add [eax],al
00001A3C  0000              add [eax],al
00001A3E  0000              add [eax],al
00001A40  0000              add [eax],al
00001A42  0000              add [eax],al
00001A44  0000              add [eax],al
00001A46  0000              add [eax],al
00001A48  0000              add [eax],al
00001A4A  0000              add [eax],al
00001A4C  0000              add [eax],al
00001A4E  0000              add [eax],al
00001A50  0000              add [eax],al
00001A52  0000              add [eax],al
00001A54  0000              add [eax],al
00001A56  0000              add [eax],al
00001A58  0000              add [eax],al
00001A5A  0000              add [eax],al
00001A5C  0000              add [eax],al
00001A5E  0000              add [eax],al
00001A60  0000              add [eax],al
00001A62  0000              add [eax],al
00001A64  0000              add [eax],al
00001A66  0000              add [eax],al
00001A68  0000              add [eax],al
00001A6A  0000              add [eax],al
00001A6C  0000              add [eax],al
00001A6E  0000              add [eax],al
00001A70  0000              add [eax],al
00001A72  0000              add [eax],al
00001A74  0000              add [eax],al
00001A76  0000              add [eax],al
00001A78  0000              add [eax],al
00001A7A  0000              add [eax],al
00001A7C  0000              add [eax],al
00001A7E  0000              add [eax],al
00001A80  0000              add [eax],al
00001A82  0000              add [eax],al
00001A84  0000              add [eax],al
00001A86  0000              add [eax],al
00001A88  0000              add [eax],al
00001A8A  0000              add [eax],al
00001A8C  0000              add [eax],al
00001A8E  0000              add [eax],al
00001A90  0000              add [eax],al
00001A92  0000              add [eax],al
00001A94  0000              add [eax],al
00001A96  0000              add [eax],al
00001A98  0000              add [eax],al
00001A9A  2000              and [eax],al
00001A9C  0000              add [eax],al
00001A9E  1000              adc [eax],al
00001AA0  0001              add [ecx],al
00001AA2  1000              adc [eax],al
00001AA4  000510000005      add [dword 0x5000010],al
00001AAA  1200              adc al,[eax]
00001AAC  007512            add [ebp+0x12],dh
00001AAF  0000              add [eax],al
00001AB1  004000            add [eax+0x0],al
00001AB4  1400              adc al,0x0
00001AB6  0000              add [eax],al
00001AB8  0000              add [eax],al
00001ABA  0000              add [eax],al
00001ABC  017A52            add [edx+0x52],edi
00001ABF  0001              add [ecx],al
00001AC1  7C08              jl 0x1acb
00001AC3  011B              add [ebx],ebx
00001AC5  0C04              or al,0x4
00001AC7  0488              add al,0x88
00001AC9  0100              add [eax],eax
00001ACB  0020              add [eax],ah
00001ACD  0000              add [eax],al
00001ACF  001C00            add [eax+eax],bl
00001AD2  0000              add [eax],al
00001AD4  2CE5              sub al,0xe5
00001AD6  FF                db 0xff
00001AD7  FF                db 0xff
00001AD8  F8                clc
00001AD9  0200              add al,[eax]
00001ADB  0000              add [eax],al
00001ADD  41                inc ecx
00001ADE  0E                push cs
00001ADF  088502420D05      or [ebp+0x50d4202],al
00001AE5  44                inc esp
00001AE6  830303            add dword [ebx],byte +0x3
00001AE9  F002C5            lock add al,ch
00001AEC  C3                ret
00001AED  0C04              or al,0x4
00001AEF  041C              add al,0x1c
00001AF1  0000              add [eax],al
00001AF3  004000            add [eax+0x0],al
00001AF6  0000              add [eax],al
00001AF8  00E8              add al,ch
00001AFA  FF                db 0xff
00001AFB  FF6300            jmp [ebx+0x0]
00001AFE  0000              add [eax],al
00001B00  00410E            add [ecx+0xe],al
00001B03  088502420D05      or [ebp+0x50d4202],al
00001B09  025FC5            add bl,[edi-0x3b]
00001B0C  0C04              or al,0x4
00001B0E  0400              add al,0x0
00001B10  1C00              sbb al,0x0
00001B12  0000              add [eax],al
00001B14  60                pusha
00001B15  0000              add [eax],al
00001B17  0043E8            add [ebx-0x18],al
00001B1A  FF                db 0xff
00001B1B  FF19              call far [ecx]
00001B1D  0000              add [eax],al
00001B1F  0000              add [eax],al
00001B21  41                inc ecx
00001B22  0E                push cs
00001B23  088502420D05      or [ebp+0x50d4202],al
00001B29  55                push ebp
00001B2A  C50C04            lds ecx,[esp+eax]
00001B2D  0400              add al,0x0
00001B2F  0020              add [eax],ah
00001B31  0000              add [eax],al
00001B33  00800000003C      add [eax+0x3c000000],al
00001B39  E8FFFFB100        call 0xb21b3d
00001B3E  0000              add [eax],al
00001B40  00410E            add [ecx+0xe],al
00001B43  088502420D05      or [ebp+0x50d4202],al
00001B49  44                inc esp
00001B4A  830302            add dword [ebx],byte +0x2
00001B4D  A9C5C30C04        test eax,0x40cc3c5
00001B52  0400              add al,0x0
00001B54  2400              and al,0x0
00001B56  0000              add [eax],al
00001B58  A4                movsb
00001B59  0000              add [eax],al
00001B5B  00C9              add cl,cl
00001B5D  E8FFFFEF00        call 0xf01b61
00001B62  0000              add [eax],al
00001B64  00410E            add [ecx+0xe],al
00001B67  088502420D05      or [ebp+0x50d4202],al
00001B6D  45                inc ebp
00001B6E  8603              xchg al,[ebx]
00001B70  830402E4          add dword [edx+eax],byte -0x1c
00001B74  C3                ret
00001B75  41                inc ecx
00001B76  C641C50C          mov byte [ecx-0x3b],0xc
00001B7A  0404              add al,0x4
00001B7C  2000              and [eax],al
00001B7E  0000              add [eax],al
00001B80  CC                int3
00001B81  0000              add [eax],al
00001B83  0090E9FFFF55      add [eax+0x55ffffe9],dl
00001B89  0000              add [eax],al
00001B8B  0000              add [eax],al
00001B8D  41                inc ecx
00001B8E  0E                push cs
00001B8F  088502420D05      or [ebp+0x50d4202],al
00001B95  44                inc esp
00001B96  830302            add dword [ebx],byte +0x2
00001B99  4D                dec ebp
00001B9A  C5                db 0xc5
00001B9B  C3                ret
00001B9C  0C04              or al,0x4
00001B9E  0400              add al,0x0
00001BA0  2000              and [eax],al
00001BA2  0000              add [eax],al
00001BA4  F00000            lock add [eax],al
00001BA7  00C1              add cl,al
00001BA9  E9FFFF5500        jmp 0x561bad
00001BAE  0000              add [eax],al
00001BB0  00410E            add [ecx+0xe],al
00001BB3  088502420D05      or [ebp+0x50d4202],al
00001BB9  44                inc esp
00001BBA  830302            add dword [ebx],byte +0x2
00001BBD  4D                dec ebp
00001BBE  C5                db 0xc5
00001BBF  C3                ret
00001BC0  0C04              or al,0x4
00001BC2  0400              add al,0x0
00001BC4  2000              and [eax],al
00001BC6  0000              add [eax],al
00001BC8  1401              adc al,0x1
00001BCA  0000              add [eax],al
00001BCC  F2E9FFFF5500      bnd jmp 0x561bd1
00001BD2  0000              add [eax],al
00001BD4  00410E            add [ecx+0xe],al
00001BD7  088502420D05      or [ebp+0x50d4202],al
00001BDD  44                inc esp
00001BDE  830302            add dword [ebx],byte +0x2
00001BE1  4D                dec ebp
00001BE2  C5                db 0xc5
00001BE3  C3                ret
00001BE4  0C04              or al,0x4
00001BE6  0400              add al,0x0
00001BE8  1C00              sbb al,0x0
00001BEA  0000              add [eax],al
00001BEC  3801              cmp [ecx],al
00001BEE  0000              add [eax],al
00001BF0  23EA              and ebp,edx
00001BF2  FF                db 0xff
00001BF3  FF5F00            call far [edi+0x0]
00001BF6  0000              add [eax],al
00001BF8  00410E            add [ecx+0xe],al
00001BFB  088502420D05      or [ebp+0x50d4202],al
00001C01  025BC5            add bl,[ebx-0x3b]
00001C04  0C04              or al,0x4
00001C06  0400              add al,0x0
00001C08  2800              sub [eax],al
00001C0A  0000              add [eax],al
00001C0C  58                pop eax
00001C0D  0100              add [eax],eax
00001C0F  0062EA            add [edx-0x16],ah
00001C12  FF                db 0xff
00001C13  FFD7              call edi
00001C15  0100              add [eax],eax
00001C17  0000              add [eax],al
00001C19  41                inc ecx
00001C1A  0E                push cs
00001C1B  088502420D05      or [ebp+0x50d4202],al
00001C21  45                inc ebp
00001C22  8603              xchg al,[ebx]
00001C24  830403CC          add dword [ebx+eax],byte -0x34
00001C28  01C3              add ebx,eax
00001C2A  41                inc ecx
00001C2B  C641C50C          mov byte [ecx-0x3b],0xc
00001C2F  0404              add al,0x4
00001C31  0000              add [eax],al
00001C33  001C00            add [eax+eax],bl
00001C36  0000              add [eax],al
00001C38  8401              test [ecx],al
00001C3A  0000              add [eax],al
00001C3C  0DECFFFF1F        or eax,0x1fffffec
00001C41  0000              add [eax],al
00001C43  0000              add [eax],al
00001C45  41                inc ecx
00001C46  0E                push cs
00001C47  088502420D05      or [ebp+0x50d4202],al
00001C4D  5B                pop ebx
00001C4E  C50C04            lds ecx,[esp+eax]
00001C51  0400              add al,0x0
00001C53  001C00            add [eax+eax],bl
00001C56  0000              add [eax],al
00001C58  A4                movsb
00001C59  0100              add [eax],eax
00001C5B  000CEC            add [esp+ebp*8],cl
00001C5E  FF                db 0xff
00001C5F  FF30              push dword [eax]
00001C61  0000              add [eax],al
00001C63  0000              add [eax],al
00001C65  41                inc ecx
00001C66  0E                push cs
00001C67  088502420D05      or [ebp+0x50d4202],al
00001C6D  6C                insb
00001C6E  C50C04            lds ecx,[esp+eax]
00001C71  0400              add al,0x0
00001C73  001C00            add [eax+eax],bl
00001C76  0000              add [eax],al
00001C78  C401              les eax,[ecx]
00001C7A  0000              add [eax],al
00001C7C  1CEC              sbb al,0xec
00001C7E  FF                db 0xff
00001C7F  FF5100            call [ecx+0x0]
00001C82  0000              add [eax],al
00001C84  00410E            add [ecx+0xe],al
00001C87  088502420D05      or [ebp+0x50d4202],al
00001C8D  024DC5            add cl,[ebp-0x3b]
00001C90  0C04              or al,0x4
00001C92  0400              add al,0x0
00001C94  1C00              sbb al,0x0
00001C96  0000              add [eax],al
00001C98  E401              in al,0x1
00001C9A  0000              add [eax],al
00001C9C  4D                dec ebp
00001C9D  EC                in al,dx
00001C9E  FF                db 0xff
00001C9F  FFB500000000      push dword [ebp+0x0]
00001CA5  41                inc ecx
00001CA6  0E                push cs
00001CA7  088502420D05      or [ebp+0x50d4202],al
00001CAD  02B1C50C0404      add dh,[ecx+0x4040cc5]
00001CB3  001C00            add [eax+eax],bl
00001CB6  0000              add [eax],al
00001CB8  0402              add al,0x2
00001CBA  0000              add [eax],al
00001CBC  E2EC              loop 0x1caa
00001CBE  FF                db 0xff
00001CBF  FF5900            call far [ecx+0x0]
00001CC2  0000              add [eax],al
00001CC4  00410E            add [ecx+0xe],al
00001CC7  088502420D05      or [ebp+0x50d4202],al
00001CCD  0255C5            add dl,[ebp-0x3b]
00001CD0  0C04              or al,0x4
00001CD2  0400              add al,0x0
00001CD4  2400              and al,0x0
00001CD6  0000              add [eax],al
00001CD8  2402              and al,0x2
00001CDA  0000              add [eax],al
00001CDC  1BED              sbb ebp,ebp
00001CDE  FF                db 0xff
00001CDF  FF5500            call [ebp+0x0]
00001CE2  0000              add [eax],al
00001CE4  00410E            add [ecx+0xe],al
00001CE7  088502420D05      or [ebp+0x50d4202],al
00001CED  45                inc ebp
00001CEE  8603              xchg al,[ebx]
00001CF0  8304024A          add dword [edx+eax],byte +0x4a
00001CF4  C3                ret
00001CF5  41                inc ecx
00001CF6  C641C50C          mov byte [ecx-0x3b],0xc
00001CFA  0404              add al,0x4
00001CFC  2000              and [eax],al
00001CFE  0000              add [eax],al
00001D00  4C                dec esp
00001D01  0200              add al,[eax]
00001D03  0048ED            add [eax-0x13],cl
00001D06  FF                db 0xff
00001D07  FF9900000000      call far [ecx+0x0]
00001D0D  41                inc ecx
00001D0E  0E                push cs
00001D0F  088502420D05      or [ebp+0x50d4202],al
00001D15  44                inc esp
00001D16  830302            add dword [ebx],byte +0x2
00001D19  91                xchg eax,ecx
00001D1A  C5                db 0xc5
00001D1B  C3                ret
00001D1C  0C04              or al,0x4
00001D1E  0400              add al,0x0
00001D20  2000              and [eax],al
00001D22  0000              add [eax],al
00001D24  7002              jo 0x1d28
00001D26  0000              add [eax],al
00001D28  BDEDFFFF41        mov ebp,0x41ffffed
00001D2D  0000              add [eax],al
00001D2F  0000              add [eax],al
00001D31  41                inc ecx
00001D32  0E                push cs
00001D33  088502420D05      or [ebp+0x50d4202],al
00001D39  44                inc esp
00001D3A  830379            add dword [ebx],byte +0x79
00001D3D  C5                db 0xc5
00001D3E  C3                ret
00001D3F  0C04              or al,0x4
00001D41  0400              add al,0x0
00001D43  0020              add [eax],ah
00001D45  0000              add [eax],al
00001D47  0094020000DAED    add [edx+eax-0x12260000],dl
00001D4E  FF                db 0xff
00001D4F  FF2F              jmp far [edi]
00001D51  0000              add [eax],al
00001D53  0000              add [eax],al
00001D55  41                inc ecx
00001D56  0E                push cs
00001D57  088502420D05      or [ebp+0x50d4202],al
00001D5D  41                inc ecx
00001D5E  83036A            add dword [ebx],byte +0x6a
00001D61  C5                db 0xc5
00001D62  C3                ret
00001D63  0C04              or al,0x4
00001D65  0400              add al,0x0
00001D67  0020              add [eax],ah
00001D69  0000              add [eax],al
00001D6B  00B8020000E5      add [eax-0x1afffffe],bh
00001D71  ED                in eax,dx
00001D72  FF                db 0xff
00001D73  FFE4              jmp esp
00001D75  0000              add [eax],al
00001D77  0000              add [eax],al
00001D79  41                inc ecx
00001D7A  0E                push cs
00001D7B  088502420D05      or [ebp+0x50d4202],al
00001D81  44                inc esp
00001D82  830302            add dword [ebx],byte +0x2
00001D85  DCC5              fadd to st5
00001D87  C3                ret
00001D88  0C04              or al,0x4
00001D8A  0400              add al,0x0
00001D8C  2000              and [eax],al
00001D8E  0000              add [eax],al
00001D90  DC02              fadd qword [edx]
00001D92  0000              add [eax],al
00001D94  A5                movsd
00001D95  EE                out dx,al
00001D96  FF                db 0xff
00001D97  FFAE00000000      jmp far [esi+0x0]
00001D9D  41                inc ecx
00001D9E  0E                push cs
00001D9F  088502420D05      or [ebp+0x50d4202],al
00001DA5  44                inc esp
00001DA6  830302            add dword [ebx],byte +0x2
00001DA9  A6                cmpsb
00001DAA  C5                db 0xc5
00001DAB  C3                ret
00001DAC  0C04              or al,0x4
00001DAE  0400              add al,0x0
00001DB0  1C00              sbb al,0x0
00001DB2  0000              add [eax],al
00001DB4  0003              add [ebx],al
00001DB6  0000              add [eax],al
00001DB8  2F                das
00001DB9  EF                out dx,eax
00001DBA  FF                db 0xff
00001DBB  FFD1              call ecx
00001DBD  0000              add [eax],al
00001DBF  0000              add [eax],al
00001DC1  41                inc ecx
00001DC2  0E                push cs
00001DC3  088502420D05      or [ebp+0x50d4202],al
00001DC9  02CD              add cl,ch
00001DCB  C50C04            lds ecx,[esp+eax]
00001DCE  0400              add al,0x0
00001DD0  1C00              sbb al,0x0
00001DD2  0000              add [eax],al
00001DD4  2003              and [ebx],al
00001DD6  0000              add [eax],al
00001DD8  E0EF              loopne 0x1dc9
00001DDA  FF                db 0xff
00001DDB  FF                db 0xff
00001DDC  EA00000000410E    jmp 0xe41:0x0
00001DE3  088502420D05      or [ebp+0x50d4202],al
00001DE9  02E6              add ah,dh
00001DEB  C50C04            lds ecx,[esp+eax]
00001DEE  0400              add al,0x0
00001DF0  2000              and [eax],al
00001DF2  0000              add [eax],al
00001DF4  40                inc eax
00001DF5  0300              add eax,[eax]
00001DF7  00AAF0FFFF08      add [edx+0x8fffff0],ch
00001DFD  0100              add [eax],eax
00001DFF  0000              add [eax],al
00001E01  41                inc ecx
00001E02  0E                push cs
00001E03  088502420D05      or [ebp+0x50d4202],al
00001E09  44                inc esp
00001E0A  830303            add dword [ebx],byte +0x3
00001E0D  0001              add [ecx],al
00001E0F  C5                db 0xc5
00001E10  C3                ret
00001E11  0C04              or al,0x4
00001E13  0420              add al,0x20
00001E15  0000              add [eax],al
00001E17  00640300          add [ebx+eax+0x0],ah
00001E1B  008EF1FFFF81      add [esi-0x7e00000f],cl
00001E21  0000              add [eax],al
00001E23  0000              add [eax],al
00001E25  41                inc ecx
00001E26  0E                push cs
00001E27  088502420D05      or [ebp+0x50d4202],al
00001E2D  44                inc esp
00001E2E  830302            add dword [ebx],byte +0x2
00001E31  79C5              jns 0x1df8
00001E33  C3                ret
00001E34  0C04              or al,0x4
00001E36  0400              add al,0x0
00001E38  2400              and al,0x0
00001E3A  0000              add [eax],al
00001E3C  8803              mov [ebx],al
00001E3E  0000              add [eax],al
00001E40  EBF1              jmp short 0x1e33
00001E42  FF                db 0xff
00001E43  FF                db 0xff
00001E44  7800              js 0x1e46
00001E46  0000              add [eax],al
00001E48  00410E            add [ecx+0xe],al
00001E4B  088502420D05      or [ebp+0x50d4202],al
00001E51  45                inc ebp
00001E52  8603              xchg al,[ebx]
00001E54  8304026D          add dword [edx+eax],byte +0x6d
00001E58  C3                ret
00001E59  41                inc ecx
00001E5A  C641C50C          mov byte [ecx-0x3b],0xc
00001E5E  0404              add al,0x4
00001E60  2400              and al,0x0
00001E62  0000              add [eax],al
00001E64  B003              mov al,0x3
00001E66  0000              add [eax],al
00001E68  3BF2              cmp esi,edx
00001E6A  FF                db 0xff
00001E6B  FF                db 0xff
00001E6C  7B00              jpo 0x1e6e
00001E6E  0000              add [eax],al
00001E70  00410E            add [ecx+0xe],al
00001E73  088502420D05      or [ebp+0x50d4202],al
00001E79  45                inc ebp
00001E7A  8603              xchg al,[ebx]
00001E7C  83040270          add dword [edx+eax],byte +0x70
00001E80  C3                ret
00001E81  41                inc ecx
00001E82  C641C50C          mov byte [ecx-0x3b],0xc
00001E86  0404              add al,0x4
00001E88  1C00              sbb al,0x0
00001E8A  0000              add [eax],al
00001E8C  D803              fadd dword [ebx]
00001E8E  0000              add [eax],al
00001E90  8EF2              mov segr6,edx
00001E92  FF                db 0xff
00001E93  FFCD              dec ebp
00001E95  0000              add [eax],al
00001E97  0000              add [eax],al
00001E99  41                inc ecx
00001E9A  0E                push cs
00001E9B  088502420D05      or [ebp+0x50d4202],al
00001EA1  02C9              add cl,cl
00001EA3  C50C04            lds ecx,[esp+eax]
00001EA6  0400              add al,0x0
00001EA8  1C00              sbb al,0x0
00001EAA  0000              add [eax],al
00001EAC  F8                clc
00001EAD  0300              add eax,[eax]
00001EAF  003B              add [ebx],bh
00001EB1  F3                rep
00001EB2  FF                db 0xff
00001EB3  FF540000          call [eax+eax+0x0]
00001EB7  0000              add [eax],al
00001EB9  41                inc ecx
00001EBA  0E                push cs
00001EBB  088502420D05      or [ebp+0x50d4202],al
00001EC1  0250C5            add dl,[eax-0x3b]
00001EC4  0C04              or al,0x4
00001EC6  0400              add al,0x0
00001EC8  1C00              sbb al,0x0
00001ECA  0000              add [eax],al
00001ECC  180400            sbb [eax+eax],al
00001ECF  006FF3            add [edi-0xd],ch
00001ED2  FF                db 0xff
00001ED3  FF2500000000      jmp [dword 0x0]
00001ED9  41                inc ecx
00001EDA  0E                push cs
00001EDB  088502420D05      or [ebp+0x50d4202],al
00001EE1  61                popa
00001EE2  C50C04            lds ecx,[esp+eax]
00001EE5  0400              add al,0x0
00001EE7  001C00            add [eax+eax],bl
00001EEA  0000              add [eax],al
00001EEC  380400            cmp [eax+eax],al
00001EEF  0074F3FF          add [ebx+esi*8-0x1],dh
00001EF3  FF10              call [eax]
00001EF5  0000              add [eax],al
00001EF7  0000              add [eax],al
00001EF9  41                inc ecx
00001EFA  0E                push cs
00001EFB  088502420D05      or [ebp+0x50d4202],al
00001F01  4C                dec esp
00001F02  C50C04            lds ecx,[esp+eax]
00001F05  0400              add al,0x0
00001F07  001C00            add [eax+eax],bl
00001F0A  0000              add [eax],al
00001F0C  58                pop eax
00001F0D  0400              add al,0x0
00001F0F  0064F3FF          add [ebx+esi*8-0x1],ah
00001F13  FF31              push dword [ecx]
00001F15  0000              add [eax],al
00001F17  0000              add [eax],al
00001F19  41                inc ecx
00001F1A  0E                push cs
00001F1B  088502420D05      or [ebp+0x50d4202],al
00001F21  6D                insd
00001F22  C50C04            lds ecx,[esp+eax]
00001F25  0400              add al,0x0
00001F27  001C00            add [eax+eax],bl
00001F2A  0000              add [eax],al
00001F2C  7804              js 0x1f32
00001F2E  0000              add [eax],al
00001F30  75F3              jnz 0x1f25
00001F32  FF                db 0xff
00001F33  FF8801000000      dec dword [eax+0x1]
00001F39  41                inc ecx
00001F3A  0E                push cs
00001F3B  088502420D05      or [ebp+0x50d4202],al
00001F41  038401C50C0404    add eax,[ecx+eax+0x4040cc5]
00001F48  1C00              sbb al,0x0
00001F4A  0000              add [eax],al
00001F4C  98                cwde
00001F4D  0400              add al,0x0
00001F4F  00DD              add ch,bl
00001F51  F4                hlt
00001F52  FF                db 0xff
00001F53  FF5200            call [edx+0x0]
00001F56  0000              add [eax],al
00001F58  00410E            add [ecx+0xe],al
00001F5B  088502420D05      or [ebp+0x50d4202],al
00001F61  024EC5            add cl,[esi-0x3b]
00001F64  0C04              or al,0x4
00001F66  0400              add al,0x0
00001F68  1C00              sbb al,0x0
00001F6A  0000              add [eax],al
00001F6C  B80400000F        mov eax,0xf000004
00001F71  F5                cmc
00001F72  FF                db 0xff
00001F73  FFC4              inc esp
00001F75  0400              add al,0x0
00001F77  0000              add [eax],al
00001F79  41                inc ecx
00001F7A  0E                push cs
00001F7B  088502420D05      or [ebp+0x50d4202],al
00001F81  03BE04C50C04      add edi,[esi+0x40cc504]
00001F87  041C              add al,0x1c
00001F89  0000              add [eax],al
00001F8B  00D8              add al,bl
00001F8D  0400              add al,0x0
00001F8F  00B3F9FFFF71      add [ebx+0x71fffff9],dh
00001F95  0000              add [eax],al
00001F97  0000              add [eax],al
00001F99  41                inc ecx
00001F9A  0E                push cs
00001F9B  088502420D05      or [ebp+0x50d4202],al
00001FA1  026BC5            add ch,[ebx-0x3b]
00001FA4  0C04              or al,0x4
00001FA6  0400              add al,0x0
00001FA8  1C00              sbb al,0x0
00001FAA  0000              add [eax],al
00001FAC  F8                clc
00001FAD  0400              add al,0x0
00001FAF  0004FA            add [edx+edi*8],al
00001FB2  FF                db 0xff
00001FB3  FF10              call [eax]
00001FB5  0000              add [eax],al
00001FB7  0000              add [eax],al
00001FB9  41                inc ecx
00001FBA  0E                push cs
00001FBB  088502420D05      or [ebp+0x50d4202],al
00001FC1  4C                dec esp
00001FC2  C50C04            lds ecx,[esp+eax]
00001FC5  0400              add al,0x0
00001FC7  0010              add [eax],dl
00001FC9  0000              add [eax],al
00001FCB  0018              add [eax],bl
00001FCD  050000F4F9        add eax,0xf9f40000
00001FD2  FF                db 0xff
00001FD3  FF0400            inc dword [eax+eax]
00001FD6  0000              add [eax],al
00001FD8  0000              add [eax],al
00001FDA  0000              add [eax],al
00001FDC  1000              adc [eax],al
00001FDE  0000              add [eax],al
00001FE0  2C05              sub al,0x5
00001FE2  0000              add [eax],al
00001FE4  E4F9              in al,0xf9
00001FE6  FF                db 0xff
00001FE7  FF0400            inc dword [eax+eax]
00001FEA  0000              add [eax],al
00001FEC  0000              add [eax],al
00001FEE  0000              add [eax],al
00001FF0  1000              adc [eax],al
00001FF2  0000              add [eax],al
00001FF4  40                inc eax
00001FF5  050000D4F9        add eax,0xf9d40000
00001FFA  FF                db 0xff
00001FFB  FF0400            inc dword [eax+eax]
00001FFE  0000              add [eax],al
00002000  0000              add [eax],al
00002002  0000              add [eax],al
00002004  0000              add [eax],al
00002006  0000              add [eax],al
00002008  0000              add [eax],al
0000200A  0000              add [eax],al
0000200C  0000              add [eax],al
0000200E  0000              add [eax],al
00002010  0000              add [eax],al
00002012  0000              add [eax],al
00002014  0000              add [eax],al
00002016  0000              add [eax],al
00002018  0000              add [eax],al
0000201A  0000              add [eax],al
0000201C  0000              add [eax],al
0000201E  0000              add [eax],al
00002020  0000              add [eax],al
00002022  0000              add [eax],al
00002024  0000              add [eax],al
00002026  0000              add [eax],al
00002028  0000              add [eax],al
0000202A  0000              add [eax],al
0000202C  0000              add [eax],al
0000202E  0000              add [eax],al
00002030  0000              add [eax],al
00002032  0000              add [eax],al
00002034  0000              add [eax],al
00002036  0000              add [eax],al
00002038  0000              add [eax],al
0000203A  0000              add [eax],al
0000203C  0000              add [eax],al
0000203E  0000              add [eax],al
00002040  0000              add [eax],al
00002042  0000              add [eax],al
00002044  0000              add [eax],al
00002046  0000              add [eax],al
00002048  0000              add [eax],al
0000204A  0000              add [eax],al
0000204C  0000              add [eax],al
0000204E  0000              add [eax],al
00002050  0000              add [eax],al
00002052  0000              add [eax],al
00002054  0000              add [eax],al
00002056  0000              add [eax],al
00002058  0000              add [eax],al
0000205A  0000              add [eax],al
0000205C  0000              add [eax],al
0000205E  0000              add [eax],al
00002060  0000              add [eax],al
00002062  0000              add [eax],al
00002064  0000              add [eax],al
00002066  0000              add [eax],al
00002068  0000              add [eax],al
0000206A  0000              add [eax],al
0000206C  0000              add [eax],al
0000206E  0000              add [eax],al
00002070  0000              add [eax],al
00002072  0000              add [eax],al
00002074  0000              add [eax],al
00002076  0000              add [eax],al
00002078  0000              add [eax],al
0000207A  0000              add [eax],al
0000207C  0000              add [eax],al
0000207E  0000              add [eax],al
00002080  0000              add [eax],al
00002082  0000              add [eax],al
00002084  0000              add [eax],al
00002086  0000              add [eax],al
00002088  0000              add [eax],al
0000208A  0000              add [eax],al
0000208C  0000              add [eax],al
0000208E  0000              add [eax],al
00002090  0000              add [eax],al
00002092  0000              add [eax],al
00002094  0000              add [eax],al
00002096  0000              add [eax],al
00002098  0000              add [eax],al
0000209A  0000              add [eax],al
0000209C  0000              add [eax],al
0000209E  0000              add [eax],al
000020A0  0000              add [eax],al
000020A2  0000              add [eax],al
000020A4  0000              add [eax],al
000020A6  0000              add [eax],al
000020A8  0000              add [eax],al
000020AA  0000              add [eax],al
000020AC  0000              add [eax],al
000020AE  0000              add [eax],al
000020B0  0000              add [eax],al
000020B2  0000              add [eax],al
000020B4  0000              add [eax],al
000020B6  0000              add [eax],al
000020B8  0000              add [eax],al
000020BA  0000              add [eax],al
000020BC  0000              add [eax],al
000020BE  0000              add [eax],al
000020C0  0000              add [eax],al
000020C2  0000              add [eax],al
000020C4  0000              add [eax],al
000020C6  0000              add [eax],al
000020C8  0000              add [eax],al
000020CA  0000              add [eax],al
000020CC  0000              add [eax],al
000020CE  0000              add [eax],al
000020D0  0000              add [eax],al
000020D2  0000              add [eax],al
000020D4  0000              add [eax],al
000020D6  0000              add [eax],al
000020D8  0000              add [eax],al
000020DA  0000              add [eax],al
000020DC  0000              add [eax],al
000020DE  0000              add [eax],al
000020E0  0000              add [eax],al
000020E2  0000              add [eax],al
000020E4  0000              add [eax],al
000020E6  0000              add [eax],al
000020E8  0000              add [eax],al
000020EA  0000              add [eax],al
000020EC  0000              add [eax],al
000020EE  0000              add [eax],al
000020F0  0000              add [eax],al
000020F2  0000              add [eax],al
000020F4  0000              add [eax],al
000020F6  0000              add [eax],al
000020F8  0000              add [eax],al
000020FA  0000              add [eax],al
000020FC  0000              add [eax],al
000020FE  0000              add [eax],al
00002100  0000              add [eax],al
00002102  0000              add [eax],al
00002104  0000              add [eax],al
00002106  0000              add [eax],al
00002108  0000              add [eax],al
0000210A  0000              add [eax],al
0000210C  0000              add [eax],al
0000210E  0000              add [eax],al
00002110  0000              add [eax],al
00002112  0000              add [eax],al
00002114  0000              add [eax],al
00002116  0000              add [eax],al
00002118  0000              add [eax],al
0000211A  0000              add [eax],al
0000211C  0000              add [eax],al
0000211E  0000              add [eax],al
00002120  0000              add [eax],al
00002122  0000              add [eax],al
00002124  0000              add [eax],al
00002126  0000              add [eax],al
00002128  0000              add [eax],al
0000212A  0000              add [eax],al
0000212C  0000              add [eax],al
0000212E  0000              add [eax],al
00002130  0000              add [eax],al
00002132  0000              add [eax],al
00002134  0000              add [eax],al
00002136  0000              add [eax],al
00002138  0000              add [eax],al
0000213A  0000              add [eax],al
0000213C  0000              add [eax],al
0000213E  0000              add [eax],al
00002140  0000              add [eax],al
00002142  0000              add [eax],al
00002144  0000              add [eax],al
00002146  0000              add [eax],al
00002148  0000              add [eax],al
0000214A  0000              add [eax],al
0000214C  0000              add [eax],al
0000214E  0000              add [eax],al
00002150  0000              add [eax],al
00002152  0000              add [eax],al
00002154  0000              add [eax],al
00002156  0000              add [eax],al
00002158  0000              add [eax],al
0000215A  0000              add [eax],al
0000215C  0000              add [eax],al
0000215E  0000              add [eax],al
00002160  0000              add [eax],al
00002162  0000              add [eax],al
00002164  0000              add [eax],al
00002166  0000              add [eax],al
00002168  0000              add [eax],al
0000216A  0000              add [eax],al
0000216C  0000              add [eax],al
0000216E  0000              add [eax],al
00002170  0000              add [eax],al
00002172  0000              add [eax],al
00002174  0000              add [eax],al
00002176  0000              add [eax],al
00002178  0000              add [eax],al
0000217A  0000              add [eax],al
0000217C  0000              add [eax],al
0000217E  0000              add [eax],al
00002180  0000              add [eax],al
00002182  0000              add [eax],al
00002184  0000              add [eax],al
00002186  0000              add [eax],al
00002188  0000              add [eax],al
0000218A  0000              add [eax],al
0000218C  0000              add [eax],al
0000218E  0000              add [eax],al
00002190  0000              add [eax],al
00002192  0000              add [eax],al
00002194  0000              add [eax],al
00002196  0000              add [eax],al
00002198  0000              add [eax],al
0000219A  0000              add [eax],al
0000219C  0000              add [eax],al
0000219E  0000              add [eax],al
000021A0  0000              add [eax],al
000021A2  0000              add [eax],al
000021A4  0000              add [eax],al
000021A6  0000              add [eax],al
000021A8  0000              add [eax],al
000021AA  0000              add [eax],al
000021AC  0000              add [eax],al
000021AE  0000              add [eax],al
000021B0  0000              add [eax],al
000021B2  0000              add [eax],al
000021B4  0000              add [eax],al
000021B6  0000              add [eax],al
000021B8  0000              add [eax],al
000021BA  0000              add [eax],al
000021BC  0000              add [eax],al
000021BE  0000              add [eax],al
000021C0  0000              add [eax],al
000021C2  0000              add [eax],al
000021C4  0000              add [eax],al
000021C6  0000              add [eax],al
000021C8  0000              add [eax],al
000021CA  0000              add [eax],al
000021CC  0000              add [eax],al
000021CE  0000              add [eax],al
000021D0  0000              add [eax],al
000021D2  0000              add [eax],al
000021D4  0000              add [eax],al
000021D6  0000              add [eax],al
000021D8  0000              add [eax],al
000021DA  0000              add [eax],al
000021DC  0000              add [eax],al
000021DE  0000              add [eax],al
000021E0  0000              add [eax],al
000021E2  0000              add [eax],al
000021E4  0000              add [eax],al
000021E6  0000              add [eax],al
000021E8  0000              add [eax],al
000021EA  0000              add [eax],al
000021EC  0000              add [eax],al
000021EE  0000              add [eax],al
000021F0  0000              add [eax],al
000021F2  0000              add [eax],al
000021F4  0000              add [eax],al
000021F6  0000              add [eax],al
000021F8  0000              add [eax],al
000021FA  0000              add [eax],al
000021FC  0000              add [eax],al
000021FE  0000              add [eax],al
00002200  0000              add [eax],al
00002202  0000              add [eax],al
00002204  0000              add [eax],al
00002206  0000              add [eax],al
00002208  0000              add [eax],al
0000220A  0000              add [eax],al
0000220C  0000              add [eax],al
0000220E  0000              add [eax],al
00002210  0000              add [eax],al
00002212  0000              add [eax],al
00002214  0000              add [eax],al
00002216  0000              add [eax],al
00002218  0000              add [eax],al
0000221A  0000              add [eax],al
0000221C  0000              add [eax],al
0000221E  0000              add [eax],al
00002220  0000              add [eax],al
00002222  0000              add [eax],al
00002224  0000              add [eax],al
00002226  0000              add [eax],al
00002228  0000              add [eax],al
0000222A  0000              add [eax],al
0000222C  0000              add [eax],al
0000222E  0000              add [eax],al
00002230  0000              add [eax],al
00002232  0000              add [eax],al
00002234  0000              add [eax],al
00002236  0000              add [eax],al
00002238  0000              add [eax],al
0000223A  0000              add [eax],al
0000223C  0000              add [eax],al
0000223E  0000              add [eax],al
00002240  0000              add [eax],al
00002242  0000              add [eax],al
00002244  0000              add [eax],al
00002246  0000              add [eax],al
00002248  0000              add [eax],al
0000224A  0000              add [eax],al
0000224C  0000              add [eax],al
0000224E  0000              add [eax],al
00002250  0000              add [eax],al
00002252  0000              add [eax],al
00002254  0000              add [eax],al
00002256  0000              add [eax],al
00002258  0000              add [eax],al
0000225A  0000              add [eax],al
0000225C  0000              add [eax],al
0000225E  0000              add [eax],al
00002260  0000              add [eax],al
00002262  0000              add [eax],al
00002264  0000              add [eax],al
00002266  0000              add [eax],al
00002268  0000              add [eax],al
0000226A  0000              add [eax],al
0000226C  0000              add [eax],al
0000226E  0000              add [eax],al
00002270  0000              add [eax],al
00002272  0000              add [eax],al
00002274  0000              add [eax],al
00002276  0000              add [eax],al
00002278  0000              add [eax],al
0000227A  0000              add [eax],al
0000227C  0000              add [eax],al
0000227E  0000              add [eax],al
00002280  0000              add [eax],al
00002282  0000              add [eax],al
00002284  0000              add [eax],al
00002286  0000              add [eax],al
00002288  0000              add [eax],al
0000228A  0000              add [eax],al
0000228C  0000              add [eax],al
0000228E  0000              add [eax],al
00002290  0000              add [eax],al
00002292  0000              add [eax],al
00002294  0000              add [eax],al
00002296  0000              add [eax],al
00002298  0000              add [eax],al
0000229A  0000              add [eax],al
0000229C  0000              add [eax],al
0000229E  0000              add [eax],al
000022A0  0000              add [eax],al
000022A2  0000              add [eax],al
000022A4  0000              add [eax],al
000022A6  0000              add [eax],al
000022A8  0000              add [eax],al
000022AA  0000              add [eax],al
000022AC  0000              add [eax],al
000022AE  0000              add [eax],al
000022B0  0000              add [eax],al
000022B2  0000              add [eax],al
000022B4  0000              add [eax],al
000022B6  0000              add [eax],al
000022B8  0000              add [eax],al
000022BA  0000              add [eax],al
000022BC  0000              add [eax],al
000022BE  0000              add [eax],al
000022C0  0000              add [eax],al
000022C2  0000              add [eax],al
000022C4  0000              add [eax],al
000022C6  0000              add [eax],al
000022C8  0000              add [eax],al
000022CA  0000              add [eax],al
000022CC  0000              add [eax],al
000022CE  0000              add [eax],al
000022D0  0000              add [eax],al
000022D2  0000              add [eax],al
000022D4  0000              add [eax],al
000022D6  0000              add [eax],al
000022D8  0000              add [eax],al
000022DA  0000              add [eax],al
000022DC  0000              add [eax],al
000022DE  0000              add [eax],al
000022E0  0000              add [eax],al
000022E2  0000              add [eax],al
000022E4  0000              add [eax],al
000022E6  0000              add [eax],al
000022E8  0000              add [eax],al
000022EA  0000              add [eax],al
000022EC  0000              add [eax],al
000022EE  0000              add [eax],al
000022F0  0000              add [eax],al
000022F2  0000              add [eax],al
000022F4  0000              add [eax],al
000022F6  0000              add [eax],al
000022F8  0000              add [eax],al
000022FA  0000              add [eax],al
000022FC  0000              add [eax],al
000022FE  0000              add [eax],al
00002300  0000              add [eax],al
00002302  0000              add [eax],al
00002304  0000              add [eax],al
00002306  0000              add [eax],al
00002308  0000              add [eax],al
0000230A  0000              add [eax],al
0000230C  0000              add [eax],al
0000230E  0000              add [eax],al
00002310  0000              add [eax],al
00002312  0000              add [eax],al
00002314  0000              add [eax],al
00002316  0000              add [eax],al
00002318  0000              add [eax],al
0000231A  0000              add [eax],al
0000231C  0000              add [eax],al
0000231E  0000              add [eax],al
00002320  0000              add [eax],al
00002322  0000              add [eax],al
00002324  0000              add [eax],al
00002326  0000              add [eax],al
00002328  0000              add [eax],al
0000232A  0000              add [eax],al
0000232C  0000              add [eax],al
0000232E  0000              add [eax],al
00002330  0000              add [eax],al
00002332  0000              add [eax],al
00002334  0000              add [eax],al
00002336  0000              add [eax],al
00002338  0000              add [eax],al
0000233A  0000              add [eax],al
0000233C  0000              add [eax],al
0000233E  0000              add [eax],al
00002340  0000              add [eax],al
00002342  0000              add [eax],al
00002344  0000              add [eax],al
00002346  0000              add [eax],al
00002348  0000              add [eax],al
0000234A  0000              add [eax],al
0000234C  0000              add [eax],al
0000234E  0000              add [eax],al
00002350  0000              add [eax],al
00002352  0000              add [eax],al
00002354  0000              add [eax],al
00002356  0000              add [eax],al
00002358  0000              add [eax],al
0000235A  0000              add [eax],al
0000235C  0000              add [eax],al
0000235E  0000              add [eax],al
00002360  0000              add [eax],al
00002362  0000              add [eax],al
00002364  0000              add [eax],al
00002366  0000              add [eax],al
00002368  0000              add [eax],al
0000236A  0000              add [eax],al
0000236C  0000              add [eax],al
0000236E  0000              add [eax],al
00002370  0000              add [eax],al
00002372  0000              add [eax],al
00002374  0000              add [eax],al
00002376  0000              add [eax],al
00002378  0000              add [eax],al
0000237A  0000              add [eax],al
0000237C  0000              add [eax],al
0000237E  0000              add [eax],al
00002380  0000              add [eax],al
00002382  0000              add [eax],al
00002384  0000              add [eax],al
00002386  0000              add [eax],al
00002388  0000              add [eax],al
0000238A  0000              add [eax],al
0000238C  0000              add [eax],al
0000238E  0000              add [eax],al
00002390  0000              add [eax],al
00002392  0000              add [eax],al
00002394  0000              add [eax],al
00002396  0000              add [eax],al
00002398  0000              add [eax],al
0000239A  0000              add [eax],al
0000239C  0000              add [eax],al
0000239E  0000              add [eax],al
000023A0  0000              add [eax],al
000023A2  0000              add [eax],al
000023A4  0000              add [eax],al
000023A6  0000              add [eax],al
000023A8  0000              add [eax],al
000023AA  0000              add [eax],al
000023AC  0000              add [eax],al
000023AE  0000              add [eax],al
000023B0  0000              add [eax],al
000023B2  0000              add [eax],al
000023B4  0000              add [eax],al
000023B6  0000              add [eax],al
000023B8  0000              add [eax],al
000023BA  0000              add [eax],al
000023BC  0000              add [eax],al
000023BE  0000              add [eax],al
000023C0  0000              add [eax],al
000023C2  0000              add [eax],al
000023C4  0000              add [eax],al
000023C6  0000              add [eax],al
000023C8  0000              add [eax],al
000023CA  0000              add [eax],al
000023CC  0000              add [eax],al
000023CE  0000              add [eax],al
000023D0  0000              add [eax],al
000023D2  0000              add [eax],al
000023D4  0000              add [eax],al
000023D6  0000              add [eax],al
000023D8  0000              add [eax],al
000023DA  0000              add [eax],al
000023DC  0000              add [eax],al
000023DE  0000              add [eax],al
000023E0  0000              add [eax],al
000023E2  0000              add [eax],al
000023E4  0000              add [eax],al
000023E6  0000              add [eax],al
000023E8  0000              add [eax],al
000023EA  0000              add [eax],al
000023EC  0000              add [eax],al
000023EE  0000              add [eax],al
000023F0  0000              add [eax],al
000023F2  0000              add [eax],al
000023F4  0000              add [eax],al
000023F6  0000              add [eax],al
000023F8  0000              add [eax],al
000023FA  0000              add [eax],al
000023FC  0000              add [eax],al
000023FE  0000              add [eax],al
00002400  0000              add [eax],al
00002402  0000              add [eax],al
00002404  0000              add [eax],al
00002406  0000              add [eax],al
00002408  0000              add [eax],al
0000240A  0000              add [eax],al
0000240C  0000              add [eax],al
0000240E  0000              add [eax],al
00002410  0000              add [eax],al
00002412  0000              add [eax],al
00002414  0000              add [eax],al
00002416  0000              add [eax],al
00002418  0000              add [eax],al
0000241A  0000              add [eax],al
0000241C  0000              add [eax],al
0000241E  0000              add [eax],al
00002420  0000              add [eax],al
00002422  0000              add [eax],al
00002424  0000              add [eax],al
00002426  0000              add [eax],al
00002428  0000              add [eax],al
0000242A  0000              add [eax],al
0000242C  0000              add [eax],al
0000242E  0000              add [eax],al
00002430  0000              add [eax],al
00002432  0000              add [eax],al
00002434  0000              add [eax],al
00002436  0000              add [eax],al
00002438  0000              add [eax],al
0000243A  0000              add [eax],al
0000243C  0000              add [eax],al
0000243E  0000              add [eax],al
00002440  0000              add [eax],al
00002442  0000              add [eax],al
00002444  0000              add [eax],al
00002446  0000              add [eax],al
00002448  0000              add [eax],al
0000244A  0000              add [eax],al
0000244C  0000              add [eax],al
0000244E  0000              add [eax],al
00002450  0000              add [eax],al
00002452  0000              add [eax],al
00002454  0000              add [eax],al
00002456  0000              add [eax],al
00002458  0000              add [eax],al
0000245A  0000              add [eax],al
0000245C  0000              add [eax],al
0000245E  0000              add [eax],al
00002460  0000              add [eax],al
00002462  0000              add [eax],al
00002464  0000              add [eax],al
00002466  0000              add [eax],al
00002468  0000              add [eax],al
0000246A  0000              add [eax],al
0000246C  0000              add [eax],al
0000246E  0000              add [eax],al
00002470  0000              add [eax],al
00002472  0000              add [eax],al
00002474  0000              add [eax],al
00002476  0000              add [eax],al
00002478  0000              add [eax],al
0000247A  0000              add [eax],al
0000247C  0000              add [eax],al
0000247E  0000              add [eax],al
00002480  0000              add [eax],al
00002482  0000              add [eax],al
00002484  0000              add [eax],al
00002486  0000              add [eax],al
00002488  0000              add [eax],al
0000248A  0000              add [eax],al
0000248C  0000              add [eax],al
0000248E  0000              add [eax],al
00002490  0000              add [eax],al
00002492  0000              add [eax],al
00002494  0000              add [eax],al
00002496  0000              add [eax],al
00002498  0000              add [eax],al
0000249A  0000              add [eax],al
0000249C  0000              add [eax],al
0000249E  0000              add [eax],al
000024A0  0000              add [eax],al
000024A2  0000              add [eax],al
000024A4  0000              add [eax],al
000024A6  0000              add [eax],al
000024A8  0000              add [eax],al
000024AA  0000              add [eax],al
000024AC  0000              add [eax],al
000024AE  0000              add [eax],al
000024B0  0000              add [eax],al
000024B2  0000              add [eax],al
000024B4  0000              add [eax],al
000024B6  0000              add [eax],al
000024B8  0000              add [eax],al
000024BA  0000              add [eax],al
000024BC  0000              add [eax],al
000024BE  0000              add [eax],al
000024C0  0000              add [eax],al
000024C2  0000              add [eax],al
000024C4  0000              add [eax],al
000024C6  0000              add [eax],al
000024C8  0000              add [eax],al
000024CA  0000              add [eax],al
000024CC  0000              add [eax],al
000024CE  0000              add [eax],al
000024D0  0000              add [eax],al
000024D2  0000              add [eax],al
000024D4  0000              add [eax],al
000024D6  0000              add [eax],al
000024D8  0000              add [eax],al
000024DA  0000              add [eax],al
000024DC  0000              add [eax],al
000024DE  0000              add [eax],al
000024E0  0000              add [eax],al
000024E2  0000              add [eax],al
000024E4  0000              add [eax],al
000024E6  0000              add [eax],al
000024E8  0000              add [eax],al
000024EA  0000              add [eax],al
000024EC  0000              add [eax],al
000024EE  0000              add [eax],al
000024F0  0000              add [eax],al
000024F2  0000              add [eax],al
000024F4  0000              add [eax],al
000024F6  0000              add [eax],al
000024F8  0000              add [eax],al
000024FA  0000              add [eax],al
000024FC  0000              add [eax],al
000024FE  0000              add [eax],al
00002500  0000              add [eax],al
00002502  0000              add [eax],al
00002504  0000              add [eax],al
00002506  0000              add [eax],al
00002508  0000              add [eax],al
0000250A  0000              add [eax],al
0000250C  0000              add [eax],al
0000250E  0000              add [eax],al
00002510  0000              add [eax],al
00002512  0000              add [eax],al
00002514  0000              add [eax],al
00002516  0000              add [eax],al
00002518  0000              add [eax],al
0000251A  0000              add [eax],al
0000251C  0000              add [eax],al
0000251E  0000              add [eax],al
00002520  0000              add [eax],al
00002522  0000              add [eax],al
00002524  0000              add [eax],al
00002526  0000              add [eax],al
00002528  0000              add [eax],al
0000252A  0000              add [eax],al
0000252C  0000              add [eax],al
0000252E  0000              add [eax],al
00002530  0000              add [eax],al
00002532  0000              add [eax],al
00002534  0000              add [eax],al
00002536  0000              add [eax],al
00002538  0000              add [eax],al
0000253A  0000              add [eax],al
0000253C  0000              add [eax],al
0000253E  0000              add [eax],al
00002540  0000              add [eax],al
00002542  0000              add [eax],al
00002544  0000              add [eax],al
00002546  0000              add [eax],al
00002548  0000              add [eax],al
0000254A  0000              add [eax],al
0000254C  0000              add [eax],al
0000254E  0000              add [eax],al
00002550  0000              add [eax],al
00002552  0000              add [eax],al
00002554  0000              add [eax],al
00002556  0000              add [eax],al
00002558  0000              add [eax],al
0000255A  0000              add [eax],al
0000255C  0000              add [eax],al
0000255E  0000              add [eax],al
00002560  0000              add [eax],al
00002562  0000              add [eax],al
00002564  0000              add [eax],al
00002566  0000              add [eax],al
00002568  0000              add [eax],al
0000256A  0000              add [eax],al
0000256C  0000              add [eax],al
0000256E  0000              add [eax],al
00002570  0000              add [eax],al
00002572  0000              add [eax],al
00002574  0000              add [eax],al
00002576  0000              add [eax],al
00002578  0000              add [eax],al
0000257A  0000              add [eax],al
0000257C  0000              add [eax],al
0000257E  0000              add [eax],al
00002580  0000              add [eax],al
00002582  0000              add [eax],al
00002584  0000              add [eax],al
00002586  0000              add [eax],al
00002588  0000              add [eax],al
0000258A  0000              add [eax],al
0000258C  0000              add [eax],al
0000258E  0000              add [eax],al
00002590  0000              add [eax],al
00002592  0000              add [eax],al
00002594  0000              add [eax],al
00002596  0000              add [eax],al
00002598  0000              add [eax],al
0000259A  0000              add [eax],al
0000259C  0000              add [eax],al
0000259E  0000              add [eax],al
000025A0  0000              add [eax],al
000025A2  0000              add [eax],al
000025A4  0000              add [eax],al
000025A6  0000              add [eax],al
000025A8  0000              add [eax],al
000025AA  0000              add [eax],al
000025AC  0000              add [eax],al
000025AE  0000              add [eax],al
000025B0  0000              add [eax],al
000025B2  0000              add [eax],al
000025B4  0000              add [eax],al
000025B6  0000              add [eax],al
000025B8  0000              add [eax],al
000025BA  0000              add [eax],al
000025BC  0000              add [eax],al
000025BE  0000              add [eax],al
000025C0  0000              add [eax],al
000025C2  0000              add [eax],al
000025C4  0000              add [eax],al
000025C6  0000              add [eax],al
000025C8  0000              add [eax],al
000025CA  0000              add [eax],al
000025CC  0000              add [eax],al
000025CE  0000              add [eax],al
000025D0  0000              add [eax],al
000025D2  0000              add [eax],al
000025D4  0000              add [eax],al
000025D6  0000              add [eax],al
000025D8  0000              add [eax],al
000025DA  0000              add [eax],al
000025DC  0000              add [eax],al
000025DE  0000              add [eax],al
000025E0  0000              add [eax],al
000025E2  0000              add [eax],al
000025E4  0000              add [eax],al
000025E6  0000              add [eax],al
000025E8  0000              add [eax],al
000025EA  0000              add [eax],al
000025EC  0000              add [eax],al
000025EE  0000              add [eax],al
000025F0  0000              add [eax],al
000025F2  0000              add [eax],al
000025F4  0000              add [eax],al
000025F6  0000              add [eax],al
000025F8  0000              add [eax],al
000025FA  0000              add [eax],al
000025FC  0000              add [eax],al
000025FE  0000              add [eax],al
00002600  0000              add [eax],al
00002602  0000              add [eax],al
00002604  0000              add [eax],al
00002606  0000              add [eax],al
00002608  0000              add [eax],al
0000260A  0000              add [eax],al
0000260C  0000              add [eax],al
0000260E  0000              add [eax],al
00002610  0000              add [eax],al
00002612  0000              add [eax],al
00002614  0000              add [eax],al
00002616  0000              add [eax],al
00002618  0000              add [eax],al
0000261A  0000              add [eax],al
0000261C  0000              add [eax],al
0000261E  0000              add [eax],al
00002620  0000              add [eax],al
00002622  0000              add [eax],al
00002624  0000              add [eax],al
00002626  0000              add [eax],al
00002628  0000              add [eax],al
0000262A  0000              add [eax],al
0000262C  0000              add [eax],al
0000262E  0000              add [eax],al
00002630  0000              add [eax],al
00002632  0000              add [eax],al
00002634  0000              add [eax],al
00002636  0000              add [eax],al
00002638  0000              add [eax],al
0000263A  0000              add [eax],al
0000263C  0000              add [eax],al
0000263E  0000              add [eax],al
00002640  0000              add [eax],al
00002642  0000              add [eax],al
00002644  0000              add [eax],al
00002646  0000              add [eax],al
00002648  0000              add [eax],al
0000264A  0000              add [eax],al
0000264C  0000              add [eax],al
0000264E  0000              add [eax],al
00002650  0000              add [eax],al
00002652  0000              add [eax],al
00002654  0000              add [eax],al
00002656  0000              add [eax],al
00002658  0000              add [eax],al
0000265A  0000              add [eax],al
0000265C  0000              add [eax],al
0000265E  0000              add [eax],al
00002660  0000              add [eax],al
00002662  0000              add [eax],al
00002664  0000              add [eax],al
00002666  0000              add [eax],al
00002668  0000              add [eax],al
0000266A  0000              add [eax],al
0000266C  0000              add [eax],al
0000266E  0000              add [eax],al
00002670  0000              add [eax],al
00002672  0000              add [eax],al
00002674  0000              add [eax],al
00002676  0000              add [eax],al
00002678  0000              add [eax],al
0000267A  0000              add [eax],al
0000267C  0000              add [eax],al
0000267E  0000              add [eax],al
00002680  0000              add [eax],al
00002682  0000              add [eax],al
00002684  0000              add [eax],al
00002686  0000              add [eax],al
00002688  0000              add [eax],al
0000268A  0000              add [eax],al
0000268C  0000              add [eax],al
0000268E  0000              add [eax],al
00002690  0000              add [eax],al
00002692  0000              add [eax],al
00002694  0000              add [eax],al
00002696  0000              add [eax],al
00002698  0000              add [eax],al
0000269A  0000              add [eax],al
0000269C  0000              add [eax],al
0000269E  0000              add [eax],al
000026A0  0000              add [eax],al
000026A2  0000              add [eax],al
000026A4  0000              add [eax],al
000026A6  0000              add [eax],al
000026A8  0000              add [eax],al
000026AA  0000              add [eax],al
000026AC  0000              add [eax],al
000026AE  0000              add [eax],al
000026B0  0000              add [eax],al
000026B2  0000              add [eax],al
000026B4  0000              add [eax],al
000026B6  0000              add [eax],al
000026B8  0000              add [eax],al
000026BA  0000              add [eax],al
000026BC  0000              add [eax],al
000026BE  0000              add [eax],al
000026C0  0000              add [eax],al
000026C2  0000              add [eax],al
000026C4  0000              add [eax],al
000026C6  0000              add [eax],al
000026C8  0000              add [eax],al
000026CA  0000              add [eax],al
000026CC  0000              add [eax],al
000026CE  0000              add [eax],al
000026D0  0000              add [eax],al
000026D2  0000              add [eax],al
000026D4  0000              add [eax],al
000026D6  0000              add [eax],al
000026D8  0000              add [eax],al
000026DA  0000              add [eax],al
000026DC  0000              add [eax],al
000026DE  0000              add [eax],al
000026E0  0000              add [eax],al
000026E2  0000              add [eax],al
000026E4  0000              add [eax],al
000026E6  0000              add [eax],al
000026E8  0000              add [eax],al
000026EA  0000              add [eax],al
000026EC  0000              add [eax],al
000026EE  0000              add [eax],al
000026F0  0000              add [eax],al
000026F2  0000              add [eax],al
000026F4  0000              add [eax],al
000026F6  0000              add [eax],al
000026F8  0000              add [eax],al
000026FA  0000              add [eax],al
000026FC  0000              add [eax],al
000026FE  0000              add [eax],al
00002700  0000              add [eax],al
00002702  0000              add [eax],al
00002704  0000              add [eax],al
00002706  0000              add [eax],al
00002708  0000              add [eax],al
0000270A  0000              add [eax],al
0000270C  0000              add [eax],al
0000270E  0000              add [eax],al
00002710  0000              add [eax],al
00002712  0000              add [eax],al
00002714  0000              add [eax],al
00002716  0000              add [eax],al
00002718  0000              add [eax],al
0000271A  0000              add [eax],al
0000271C  0000              add [eax],al
0000271E  0000              add [eax],al
00002720  0000              add [eax],al
00002722  0000              add [eax],al
00002724  0000              add [eax],al
00002726  0000              add [eax],al
00002728  0000              add [eax],al
0000272A  0000              add [eax],al
0000272C  0000              add [eax],al
0000272E  0000              add [eax],al
00002730  0000              add [eax],al
00002732  0000              add [eax],al
00002734  0000              add [eax],al
00002736  0000              add [eax],al
00002738  0000              add [eax],al
0000273A  0000              add [eax],al
0000273C  0000              add [eax],al
0000273E  0000              add [eax],al
00002740  0000              add [eax],al
00002742  0000              add [eax],al
00002744  0000              add [eax],al
00002746  0000              add [eax],al
00002748  0000              add [eax],al
0000274A  0000              add [eax],al
0000274C  0000              add [eax],al
0000274E  0000              add [eax],al
00002750  0000              add [eax],al
00002752  0000              add [eax],al
00002754  0000              add [eax],al
00002756  0000              add [eax],al
00002758  0000              add [eax],al
0000275A  0000              add [eax],al
0000275C  0000              add [eax],al
0000275E  0000              add [eax],al
00002760  0000              add [eax],al
00002762  0000              add [eax],al
00002764  0000              add [eax],al
00002766  0000              add [eax],al
00002768  0000              add [eax],al
0000276A  0000              add [eax],al
0000276C  0000              add [eax],al
0000276E  0000              add [eax],al
00002770  0000              add [eax],al
00002772  0000              add [eax],al
00002774  0000              add [eax],al
00002776  0000              add [eax],al
00002778  0000              add [eax],al
0000277A  0000              add [eax],al
0000277C  0000              add [eax],al
0000277E  0000              add [eax],al
00002780  0000              add [eax],al
00002782  0000              add [eax],al
00002784  0000              add [eax],al
00002786  0000              add [eax],al
00002788  0000              add [eax],al
0000278A  0000              add [eax],al
0000278C  0000              add [eax],al
0000278E  0000              add [eax],al
00002790  0000              add [eax],al
00002792  0000              add [eax],al
00002794  0000              add [eax],al
00002796  0000              add [eax],al
00002798  0000              add [eax],al
0000279A  0000              add [eax],al
0000279C  0000              add [eax],al
0000279E  0000              add [eax],al
000027A0  0000              add [eax],al
000027A2  0000              add [eax],al
000027A4  0000              add [eax],al
000027A6  0000              add [eax],al
000027A8  0000              add [eax],al
000027AA  0000              add [eax],al
000027AC  0000              add [eax],al
000027AE  0000              add [eax],al
000027B0  0000              add [eax],al
000027B2  0000              add [eax],al
000027B4  0000              add [eax],al
000027B6  0000              add [eax],al
000027B8  0000              add [eax],al
000027BA  0000              add [eax],al
000027BC  0000              add [eax],al
000027BE  0000              add [eax],al
000027C0  0000              add [eax],al
000027C2  0000              add [eax],al
000027C4  0000              add [eax],al
000027C6  0000              add [eax],al
000027C8  0000              add [eax],al
000027CA  0000              add [eax],al
000027CC  0000              add [eax],al
000027CE  0000              add [eax],al
000027D0  0000              add [eax],al
000027D2  0000              add [eax],al
000027D4  0000              add [eax],al
000027D6  0000              add [eax],al
000027D8  0000              add [eax],al
000027DA  0000              add [eax],al
000027DC  0000              add [eax],al
000027DE  0000              add [eax],al
000027E0  0000              add [eax],al
000027E2  0000              add [eax],al
000027E4  0000              add [eax],al
000027E6  0000              add [eax],al
000027E8  0000              add [eax],al
000027EA  0000              add [eax],al
000027EC  0000              add [eax],al
000027EE  0000              add [eax],al
000027F0  0000              add [eax],al
000027F2  0000              add [eax],al
000027F4  0000              add [eax],al
000027F6  0000              add [eax],al
000027F8  0000              add [eax],al
000027FA  0000              add [eax],al
000027FC  0000              add [eax],al
000027FE  0000              add [eax],al
00002800  0000              add [eax],al
00002802  0000              add [eax],al
00002804  0000              add [eax],al
00002806  0000              add [eax],al
00002808  0000              add [eax],al
0000280A  0000              add [eax],al
0000280C  0000              add [eax],al
0000280E  0000              add [eax],al
00002810  0000              add [eax],al
00002812  0000              add [eax],al
00002814  0000              add [eax],al
00002816  0000              add [eax],al
00002818  0000              add [eax],al
0000281A  0000              add [eax],al
0000281C  0000              add [eax],al
0000281E  0000              add [eax],al
00002820  0000              add [eax],al
00002822  0000              add [eax],al
00002824  0000              add [eax],al
00002826  0000              add [eax],al
00002828  0000              add [eax],al
0000282A  0000              add [eax],al
0000282C  0000              add [eax],al
0000282E  0000              add [eax],al
00002830  0000              add [eax],al
00002832  0000              add [eax],al
00002834  0000              add [eax],al
00002836  0000              add [eax],al
00002838  0000              add [eax],al
0000283A  0000              add [eax],al
0000283C  0000              add [eax],al
0000283E  0000              add [eax],al
00002840  0000              add [eax],al
00002842  0000              add [eax],al
00002844  0000              add [eax],al
00002846  0000              add [eax],al
00002848  0000              add [eax],al
0000284A  0000              add [eax],al
0000284C  0000              add [eax],al
0000284E  0000              add [eax],al
00002850  0000              add [eax],al
00002852  0000              add [eax],al
00002854  0000              add [eax],al
00002856  0000              add [eax],al
00002858  0000              add [eax],al
0000285A  0000              add [eax],al
0000285C  0000              add [eax],al
0000285E  0000              add [eax],al
00002860  0000              add [eax],al
00002862  0000              add [eax],al
00002864  0000              add [eax],al
00002866  0000              add [eax],al
00002868  0000              add [eax],al
0000286A  0000              add [eax],al
0000286C  0000              add [eax],al
0000286E  0000              add [eax],al
00002870  0000              add [eax],al
00002872  0000              add [eax],al
00002874  0000              add [eax],al
00002876  0000              add [eax],al
00002878  0000              add [eax],al
0000287A  0000              add [eax],al
0000287C  0000              add [eax],al
0000287E  0000              add [eax],al
00002880  0000              add [eax],al
00002882  0000              add [eax],al
00002884  0000              add [eax],al
00002886  0000              add [eax],al
00002888  0000              add [eax],al
0000288A  0000              add [eax],al
0000288C  0000              add [eax],al
0000288E  0000              add [eax],al
00002890  0000              add [eax],al
00002892  0000              add [eax],al
00002894  0000              add [eax],al
00002896  0000              add [eax],al
00002898  0000              add [eax],al
0000289A  0000              add [eax],al
0000289C  0000              add [eax],al
0000289E  0000              add [eax],al
000028A0  0000              add [eax],al
000028A2  0000              add [eax],al
000028A4  0000              add [eax],al
000028A6  0000              add [eax],al
000028A8  0000              add [eax],al
000028AA  0000              add [eax],al
000028AC  0000              add [eax],al
000028AE  0000              add [eax],al
000028B0  0000              add [eax],al
000028B2  0000              add [eax],al
000028B4  0000              add [eax],al
000028B6  0000              add [eax],al
000028B8  0000              add [eax],al
000028BA  0000              add [eax],al
000028BC  0000              add [eax],al
000028BE  0000              add [eax],al
000028C0  0000              add [eax],al
000028C2  0000              add [eax],al
000028C4  0000              add [eax],al
000028C6  0000              add [eax],al
000028C8  0000              add [eax],al
000028CA  0000              add [eax],al
000028CC  0000              add [eax],al
000028CE  0000              add [eax],al
000028D0  0000              add [eax],al
000028D2  0000              add [eax],al
000028D4  0000              add [eax],al
000028D6  0000              add [eax],al
000028D8  0000              add [eax],al
000028DA  0000              add [eax],al
000028DC  0000              add [eax],al
000028DE  0000              add [eax],al
000028E0  0000              add [eax],al
000028E2  0000              add [eax],al
000028E4  0000              add [eax],al
000028E6  0000              add [eax],al
000028E8  0000              add [eax],al
000028EA  0000              add [eax],al
000028EC  0000              add [eax],al
000028EE  0000              add [eax],al
000028F0  0000              add [eax],al
000028F2  0000              add [eax],al
000028F4  0000              add [eax],al
000028F6  0000              add [eax],al
000028F8  0000              add [eax],al
000028FA  0000              add [eax],al
000028FC  0000              add [eax],al
000028FE  0000              add [eax],al
00002900  0000              add [eax],al
00002902  0000              add [eax],al
00002904  0000              add [eax],al
00002906  0000              add [eax],al
00002908  0000              add [eax],al
0000290A  0000              add [eax],al
0000290C  0000              add [eax],al
0000290E  0000              add [eax],al
00002910  0000              add [eax],al
00002912  0000              add [eax],al
00002914  0000              add [eax],al
00002916  0000              add [eax],al
00002918  0000              add [eax],al
0000291A  0000              add [eax],al
0000291C  0000              add [eax],al
0000291E  0000              add [eax],al
00002920  0000              add [eax],al
00002922  0000              add [eax],al
00002924  0000              add [eax],al
00002926  0000              add [eax],al
00002928  0000              add [eax],al
0000292A  0000              add [eax],al
0000292C  0000              add [eax],al
0000292E  0000              add [eax],al
00002930  0000              add [eax],al
00002932  0000              add [eax],al
00002934  0000              add [eax],al
00002936  0000              add [eax],al
00002938  0000              add [eax],al
0000293A  0000              add [eax],al
0000293C  0000              add [eax],al
0000293E  0000              add [eax],al
00002940  0000              add [eax],al
00002942  0000              add [eax],al
00002944  0000              add [eax],al
00002946  0000              add [eax],al
00002948  0000              add [eax],al
0000294A  0000              add [eax],al
0000294C  0000              add [eax],al
0000294E  0000              add [eax],al
00002950  0000              add [eax],al
00002952  0000              add [eax],al
00002954  0000              add [eax],al
00002956  0000              add [eax],al
00002958  0000              add [eax],al
0000295A  0000              add [eax],al
0000295C  0000              add [eax],al
0000295E  0000              add [eax],al
00002960  0000              add [eax],al
00002962  0000              add [eax],al
00002964  0000              add [eax],al
00002966  0000              add [eax],al
00002968  0000              add [eax],al
0000296A  0000              add [eax],al
0000296C  0000              add [eax],al
0000296E  0000              add [eax],al
00002970  0000              add [eax],al
00002972  0000              add [eax],al
00002974  0000              add [eax],al
00002976  0000              add [eax],al
00002978  0000              add [eax],al
0000297A  0000              add [eax],al
0000297C  0000              add [eax],al
0000297E  0000              add [eax],al
00002980  0000              add [eax],al
00002982  0000              add [eax],al
00002984  0000              add [eax],al
00002986  0000              add [eax],al
00002988  0000              add [eax],al
0000298A  0000              add [eax],al
0000298C  0000              add [eax],al
0000298E  0000              add [eax],al
00002990  0000              add [eax],al
00002992  0000              add [eax],al
00002994  0000              add [eax],al
00002996  0000              add [eax],al
00002998  0000              add [eax],al
0000299A  0000              add [eax],al
0000299C  0000              add [eax],al
0000299E  0000              add [eax],al
000029A0  0000              add [eax],al
000029A2  0000              add [eax],al
000029A4  0000              add [eax],al
000029A6  0000              add [eax],al
000029A8  0000              add [eax],al
000029AA  0000              add [eax],al
000029AC  0000              add [eax],al
000029AE  0000              add [eax],al
000029B0  0000              add [eax],al
000029B2  0000              add [eax],al
000029B4  0000              add [eax],al
000029B6  0000              add [eax],al
000029B8  0000              add [eax],al
000029BA  0000              add [eax],al
000029BC  0000              add [eax],al
000029BE  0000              add [eax],al
000029C0  0000              add [eax],al
000029C2  0000              add [eax],al
000029C4  0000              add [eax],al
000029C6  0000              add [eax],al
000029C8  0000              add [eax],al
000029CA  0000              add [eax],al
000029CC  0000              add [eax],al
000029CE  0000              add [eax],al
000029D0  0000              add [eax],al
000029D2  0000              add [eax],al
000029D4  0000              add [eax],al
000029D6  0000              add [eax],al
000029D8  0000              add [eax],al
000029DA  0000              add [eax],al
000029DC  0000              add [eax],al
000029DE  0000              add [eax],al
000029E0  0000              add [eax],al
000029E2  0000              add [eax],al
000029E4  0000              add [eax],al
000029E6  0000              add [eax],al
000029E8  0000              add [eax],al
000029EA  0000              add [eax],al
000029EC  0000              add [eax],al
000029EE  0000              add [eax],al
000029F0  0000              add [eax],al
000029F2  0000              add [eax],al
000029F4  0000              add [eax],al
000029F6  0000              add [eax],al
000029F8  0000              add [eax],al
000029FA  0000              add [eax],al
000029FC  0000              add [eax],al
000029FE  0000              add [eax],al
00002A00  0000              add [eax],al
00002A02  0000              add [eax],al
00002A04  0000              add [eax],al
00002A06  0000              add [eax],al
00002A08  0000              add [eax],al
00002A0A  0000              add [eax],al
00002A0C  0000              add [eax],al
00002A0E  0000              add [eax],al
00002A10  0000              add [eax],al
00002A12  0000              add [eax],al
00002A14  0000              add [eax],al
00002A16  0000              add [eax],al
00002A18  0000              add [eax],al
00002A1A  0000              add [eax],al
00002A1C  0000              add [eax],al
00002A1E  0000              add [eax],al
00002A20  0000              add [eax],al
00002A22  0000              add [eax],al
00002A24  0000              add [eax],al
00002A26  0000              add [eax],al
00002A28  0000              add [eax],al
00002A2A  0000              add [eax],al
00002A2C  0000              add [eax],al
00002A2E  0000              add [eax],al
00002A30  0000              add [eax],al
00002A32  0000              add [eax],al
00002A34  0000              add [eax],al
00002A36  0000              add [eax],al
00002A38  0000              add [eax],al
00002A3A  0000              add [eax],al
00002A3C  0000              add [eax],al
00002A3E  0000              add [eax],al
00002A40  0000              add [eax],al
00002A42  0000              add [eax],al
00002A44  0000              add [eax],al
00002A46  0000              add [eax],al
00002A48  0000              add [eax],al
00002A4A  0000              add [eax],al
00002A4C  0000              add [eax],al
00002A4E  0000              add [eax],al
00002A50  0000              add [eax],al
00002A52  0000              add [eax],al
00002A54  0000              add [eax],al
00002A56  0000              add [eax],al
00002A58  0000              add [eax],al
00002A5A  0000              add [eax],al
00002A5C  0000              add [eax],al
00002A5E  0000              add [eax],al
00002A60  0000              add [eax],al
00002A62  0000              add [eax],al
00002A64  0000              add [eax],al
00002A66  0000              add [eax],al
00002A68  0000              add [eax],al
00002A6A  0000              add [eax],al
00002A6C  0000              add [eax],al
00002A6E  0000              add [eax],al
00002A70  0000              add [eax],al
00002A72  0000              add [eax],al
00002A74  0000              add [eax],al
00002A76  0000              add [eax],al
00002A78  0000              add [eax],al
00002A7A  0000              add [eax],al
00002A7C  0000              add [eax],al
00002A7E  0000              add [eax],al
00002A80  0000              add [eax],al
00002A82  0000              add [eax],al
00002A84  0000              add [eax],al
00002A86  0000              add [eax],al
00002A88  0000              add [eax],al
00002A8A  0000              add [eax],al
00002A8C  0000              add [eax],al
00002A8E  0000              add [eax],al
00002A90  0000              add [eax],al
00002A92  0000              add [eax],al
00002A94  0000              add [eax],al
00002A96  0000              add [eax],al
00002A98  0000              add [eax],al
00002A9A  0000              add [eax],al
00002A9C  0000              add [eax],al
00002A9E  0000              add [eax],al
00002AA0  0000              add [eax],al
00002AA2  0000              add [eax],al
00002AA4  0000              add [eax],al
00002AA6  0000              add [eax],al
00002AA8  0000              add [eax],al
00002AAA  0000              add [eax],al
00002AAC  0000              add [eax],al
00002AAE  0000              add [eax],al
00002AB0  0000              add [eax],al
00002AB2  0000              add [eax],al
00002AB4  0000              add [eax],al
00002AB6  0000              add [eax],al
00002AB8  0000              add [eax],al
00002ABA  0000              add [eax],al
00002ABC  0000              add [eax],al
00002ABE  0000              add [eax],al
00002AC0  0000              add [eax],al
00002AC2  0000              add [eax],al
00002AC4  0000              add [eax],al
00002AC6  0000              add [eax],al
00002AC8  0000              add [eax],al
00002ACA  0000              add [eax],al
00002ACC  0000              add [eax],al
00002ACE  0000              add [eax],al
00002AD0  0000              add [eax],al
00002AD2  0000              add [eax],al
00002AD4  0000              add [eax],al
00002AD6  0000              add [eax],al
00002AD8  0000              add [eax],al
00002ADA  0000              add [eax],al
00002ADC  0000              add [eax],al
00002ADE  0000              add [eax],al
00002AE0  0000              add [eax],al
00002AE2  0000              add [eax],al
00002AE4  0000              add [eax],al
00002AE6  0000              add [eax],al
00002AE8  0000              add [eax],al
00002AEA  0000              add [eax],al
00002AEC  0000              add [eax],al
00002AEE  0000              add [eax],al
00002AF0  0000              add [eax],al
00002AF2  0000              add [eax],al
00002AF4  0000              add [eax],al
00002AF6  0000              add [eax],al
00002AF8  0000              add [eax],al
00002AFA  0000              add [eax],al
00002AFC  0000              add [eax],al
00002AFE  0000              add [eax],al
00002B00  0000              add [eax],al
00002B02  0000              add [eax],al
00002B04  0000              add [eax],al
00002B06  0000              add [eax],al
00002B08  0000              add [eax],al
00002B0A  0000              add [eax],al
00002B0C  0000              add [eax],al
00002B0E  0000              add [eax],al
00002B10  0000              add [eax],al
00002B12  0000              add [eax],al
00002B14  0000              add [eax],al
00002B16  0000              add [eax],al
00002B18  0000              add [eax],al
00002B1A  0000              add [eax],al
00002B1C  0000              add [eax],al
00002B1E  0000              add [eax],al
00002B20  0000              add [eax],al
00002B22  0000              add [eax],al
00002B24  0000              add [eax],al
00002B26  0000              add [eax],al
00002B28  0000              add [eax],al
00002B2A  0000              add [eax],al
00002B2C  0000              add [eax],al
00002B2E  0000              add [eax],al
00002B30  0000              add [eax],al
00002B32  0000              add [eax],al
00002B34  0000              add [eax],al
00002B36  0000              add [eax],al
00002B38  0000              add [eax],al
00002B3A  0000              add [eax],al
00002B3C  0000              add [eax],al
00002B3E  0000              add [eax],al
00002B40  0000              add [eax],al
00002B42  0000              add [eax],al
00002B44  0000              add [eax],al
00002B46  0000              add [eax],al
00002B48  0000              add [eax],al
00002B4A  0000              add [eax],al
00002B4C  0000              add [eax],al
00002B4E  0000              add [eax],al
00002B50  0000              add [eax],al
00002B52  0000              add [eax],al
00002B54  0000              add [eax],al
00002B56  0000              add [eax],al
00002B58  0000              add [eax],al
00002B5A  0000              add [eax],al
00002B5C  0000              add [eax],al
00002B5E  0000              add [eax],al
00002B60  0000              add [eax],al
00002B62  0000              add [eax],al
00002B64  0000              add [eax],al
00002B66  0000              add [eax],al
00002B68  0000              add [eax],al
00002B6A  0000              add [eax],al
00002B6C  0000              add [eax],al
00002B6E  0000              add [eax],al
00002B70  0000              add [eax],al
00002B72  0000              add [eax],al
00002B74  0000              add [eax],al
00002B76  0000              add [eax],al
00002B78  0000              add [eax],al
00002B7A  0000              add [eax],al
00002B7C  0000              add [eax],al
00002B7E  0000              add [eax],al
00002B80  0000              add [eax],al
00002B82  0000              add [eax],al
00002B84  0000              add [eax],al
00002B86  0000              add [eax],al
00002B88  0000              add [eax],al
00002B8A  0000              add [eax],al
00002B8C  0000              add [eax],al
00002B8E  0000              add [eax],al
00002B90  0000              add [eax],al
00002B92  0000              add [eax],al
00002B94  0000              add [eax],al
00002B96  0000              add [eax],al
00002B98  0000              add [eax],al
00002B9A  0000              add [eax],al
00002B9C  0000              add [eax],al
00002B9E  0000              add [eax],al
00002BA0  0000              add [eax],al
00002BA2  0000              add [eax],al
00002BA4  0000              add [eax],al
00002BA6  0000              add [eax],al
00002BA8  0000              add [eax],al
00002BAA  0000              add [eax],al
00002BAC  0000              add [eax],al
00002BAE  0000              add [eax],al
00002BB0  0000              add [eax],al
00002BB2  0000              add [eax],al
00002BB4  0000              add [eax],al
00002BB6  0000              add [eax],al
00002BB8  0000              add [eax],al
00002BBA  0000              add [eax],al
00002BBC  0000              add [eax],al
00002BBE  0000              add [eax],al
00002BC0  0000              add [eax],al
00002BC2  0000              add [eax],al
00002BC4  0000              add [eax],al
00002BC6  0000              add [eax],al
00002BC8  0000              add [eax],al
00002BCA  0000              add [eax],al
00002BCC  0000              add [eax],al
00002BCE  0000              add [eax],al
00002BD0  0000              add [eax],al
00002BD2  0000              add [eax],al
00002BD4  0000              add [eax],al
00002BD6  0000              add [eax],al
00002BD8  0000              add [eax],al
00002BDA  0000              add [eax],al
00002BDC  0000              add [eax],al
00002BDE  0000              add [eax],al
00002BE0  0000              add [eax],al
00002BE2  0000              add [eax],al
00002BE4  0000              add [eax],al
00002BE6  0000              add [eax],al
00002BE8  0000              add [eax],al
00002BEA  0000              add [eax],al
00002BEC  0000              add [eax],al
00002BEE  0000              add [eax],al
00002BF0  0000              add [eax],al
00002BF2  0000              add [eax],al
00002BF4  0000              add [eax],al
00002BF6  0000              add [eax],al
00002BF8  0000              add [eax],al
00002BFA  0000              add [eax],al
00002BFC  0000              add [eax],al
00002BFE  0000              add [eax],al
00002C00  0000              add [eax],al
00002C02  0000              add [eax],al
00002C04  0000              add [eax],al
00002C06  0000              add [eax],al
00002C08  0000              add [eax],al
00002C0A  0000              add [eax],al
00002C0C  0000              add [eax],al
00002C0E  0000              add [eax],al
00002C10  0000              add [eax],al
00002C12  0000              add [eax],al
00002C14  0000              add [eax],al
00002C16  0000              add [eax],al
00002C18  0000              add [eax],al
00002C1A  0000              add [eax],al
00002C1C  0000              add [eax],al
00002C1E  0000              add [eax],al
00002C20  0000              add [eax],al
00002C22  0000              add [eax],al
00002C24  0000              add [eax],al
00002C26  0000              add [eax],al
00002C28  0000              add [eax],al
00002C2A  0000              add [eax],al
00002C2C  0000              add [eax],al
00002C2E  0000              add [eax],al
00002C30  0000              add [eax],al
00002C32  0000              add [eax],al
00002C34  0000              add [eax],al
00002C36  0000              add [eax],al
00002C38  0000              add [eax],al
00002C3A  0000              add [eax],al
00002C3C  0000              add [eax],al
00002C3E  0000              add [eax],al
00002C40  0000              add [eax],al
00002C42  0000              add [eax],al
00002C44  0000              add [eax],al
00002C46  0000              add [eax],al
00002C48  0000              add [eax],al
00002C4A  0000              add [eax],al
00002C4C  0000              add [eax],al
00002C4E  0000              add [eax],al
00002C50  0000              add [eax],al
00002C52  0000              add [eax],al
00002C54  0000              add [eax],al
00002C56  0000              add [eax],al
00002C58  0000              add [eax],al
00002C5A  0000              add [eax],al
00002C5C  0000              add [eax],al
00002C5E  0000              add [eax],al
00002C60  0000              add [eax],al
00002C62  0000              add [eax],al
00002C64  0000              add [eax],al
00002C66  0000              add [eax],al
00002C68  0000              add [eax],al
00002C6A  0000              add [eax],al
00002C6C  0000              add [eax],al
00002C6E  0000              add [eax],al
00002C70  0000              add [eax],al
00002C72  0000              add [eax],al
00002C74  0000              add [eax],al
00002C76  0000              add [eax],al
00002C78  0000              add [eax],al
00002C7A  0000              add [eax],al
00002C7C  0000              add [eax],al
00002C7E  0000              add [eax],al
00002C80  0000              add [eax],al
00002C82  0000              add [eax],al
00002C84  0000              add [eax],al
00002C86  0000              add [eax],al
00002C88  0000              add [eax],al
00002C8A  0000              add [eax],al
00002C8C  0000              add [eax],al
00002C8E  0000              add [eax],al
00002C90  0000              add [eax],al
00002C92  0000              add [eax],al
00002C94  0000              add [eax],al
00002C96  0000              add [eax],al
00002C98  0000              add [eax],al
00002C9A  0000              add [eax],al
00002C9C  0000              add [eax],al
00002C9E  0000              add [eax],al
00002CA0  0000              add [eax],al
00002CA2  0000              add [eax],al
00002CA4  0000              add [eax],al
00002CA6  0000              add [eax],al
00002CA8  0000              add [eax],al
00002CAA  0000              add [eax],al
00002CAC  0000              add [eax],al
00002CAE  0000              add [eax],al
00002CB0  0000              add [eax],al
00002CB2  0000              add [eax],al
00002CB4  0000              add [eax],al
00002CB6  0000              add [eax],al
00002CB8  0000              add [eax],al
00002CBA  0000              add [eax],al
00002CBC  0000              add [eax],al
00002CBE  0000              add [eax],al
00002CC0  0000              add [eax],al
00002CC2  0000              add [eax],al
00002CC4  0000              add [eax],al
00002CC6  0000              add [eax],al
00002CC8  0000              add [eax],al
00002CCA  0000              add [eax],al
00002CCC  0000              add [eax],al
00002CCE  0000              add [eax],al
00002CD0  0000              add [eax],al
00002CD2  0000              add [eax],al
00002CD4  0000              add [eax],al
00002CD6  0000              add [eax],al
00002CD8  0000              add [eax],al
00002CDA  0000              add [eax],al
00002CDC  0000              add [eax],al
00002CDE  0000              add [eax],al
00002CE0  0000              add [eax],al
00002CE2  0000              add [eax],al
00002CE4  0000              add [eax],al
00002CE6  0000              add [eax],al
00002CE8  0000              add [eax],al
00002CEA  0000              add [eax],al
00002CEC  0000              add [eax],al
00002CEE  0000              add [eax],al
00002CF0  0000              add [eax],al
00002CF2  0000              add [eax],al
00002CF4  0000              add [eax],al
00002CF6  0000              add [eax],al
00002CF8  0000              add [eax],al
00002CFA  0000              add [eax],al
00002CFC  0000              add [eax],al
00002CFE  0000              add [eax],al
00002D00  0000              add [eax],al
00002D02  0000              add [eax],al
00002D04  0000              add [eax],al
00002D06  0000              add [eax],al
00002D08  0000              add [eax],al
00002D0A  0000              add [eax],al
00002D0C  0000              add [eax],al
00002D0E  0000              add [eax],al
00002D10  0000              add [eax],al
00002D12  0000              add [eax],al
00002D14  0000              add [eax],al
00002D16  0000              add [eax],al
00002D18  0000              add [eax],al
00002D1A  0000              add [eax],al
00002D1C  0000              add [eax],al
00002D1E  0000              add [eax],al
00002D20  0000              add [eax],al
00002D22  0000              add [eax],al
00002D24  0000              add [eax],al
00002D26  0000              add [eax],al
00002D28  0000              add [eax],al
00002D2A  0000              add [eax],al
00002D2C  0000              add [eax],al
00002D2E  0000              add [eax],al
00002D30  0000              add [eax],al
00002D32  0000              add [eax],al
00002D34  0000              add [eax],al
00002D36  0000              add [eax],al
00002D38  0000              add [eax],al
00002D3A  0000              add [eax],al
00002D3C  0000              add [eax],al
00002D3E  0000              add [eax],al
00002D40  0000              add [eax],al
00002D42  0000              add [eax],al
00002D44  0000              add [eax],al
00002D46  0000              add [eax],al
00002D48  0000              add [eax],al
00002D4A  0000              add [eax],al
00002D4C  0000              add [eax],al
00002D4E  0000              add [eax],al
00002D50  0000              add [eax],al
00002D52  0000              add [eax],al
00002D54  0000              add [eax],al
00002D56  0000              add [eax],al
00002D58  0000              add [eax],al
00002D5A  0000              add [eax],al
00002D5C  0000              add [eax],al
00002D5E  0000              add [eax],al
00002D60  0000              add [eax],al
00002D62  0000              add [eax],al
00002D64  0000              add [eax],al
00002D66  0000              add [eax],al
00002D68  0000              add [eax],al
00002D6A  0000              add [eax],al
00002D6C  0000              add [eax],al
00002D6E  0000              add [eax],al
00002D70  0000              add [eax],al
00002D72  0000              add [eax],al
00002D74  0000              add [eax],al
00002D76  0000              add [eax],al
00002D78  0000              add [eax],al
00002D7A  0000              add [eax],al
00002D7C  0000              add [eax],al
00002D7E  0000              add [eax],al
00002D80  0000              add [eax],al
00002D82  0000              add [eax],al
00002D84  0000              add [eax],al
00002D86  0000              add [eax],al
00002D88  0000              add [eax],al
00002D8A  0000              add [eax],al
00002D8C  0000              add [eax],al
00002D8E  0000              add [eax],al
00002D90  0000              add [eax],al
00002D92  0000              add [eax],al
00002D94  0000              add [eax],al
00002D96  0000              add [eax],al
00002D98  0000              add [eax],al
00002D9A  0000              add [eax],al
00002D9C  0000              add [eax],al
00002D9E  0000              add [eax],al
00002DA0  0000              add [eax],al
00002DA2  0000              add [eax],al
00002DA4  0000              add [eax],al
00002DA6  0000              add [eax],al
00002DA8  0000              add [eax],al
00002DAA  0000              add [eax],al
00002DAC  0000              add [eax],al
00002DAE  0000              add [eax],al
00002DB0  0000              add [eax],al
00002DB2  0000              add [eax],al
00002DB4  0000              add [eax],al
00002DB6  0000              add [eax],al
00002DB8  0000              add [eax],al
00002DBA  0000              add [eax],al
00002DBC  0000              add [eax],al
00002DBE  0000              add [eax],al
00002DC0  0000              add [eax],al
00002DC2  0000              add [eax],al
00002DC4  0000              add [eax],al
00002DC6  0000              add [eax],al
00002DC8  0000              add [eax],al
00002DCA  0000              add [eax],al
00002DCC  0000              add [eax],al
00002DCE  0000              add [eax],al
00002DD0  0000              add [eax],al
00002DD2  0000              add [eax],al
00002DD4  0000              add [eax],al
00002DD6  0000              add [eax],al
00002DD8  0000              add [eax],al
00002DDA  0000              add [eax],al
00002DDC  0000              add [eax],al
00002DDE  0000              add [eax],al
00002DE0  0000              add [eax],al
00002DE2  0000              add [eax],al
00002DE4  0000              add [eax],al
00002DE6  0000              add [eax],al
00002DE8  0000              add [eax],al
00002DEA  0000              add [eax],al
00002DEC  0000              add [eax],al
00002DEE  0000              add [eax],al
00002DF0  0000              add [eax],al
00002DF2  0000              add [eax],al
00002DF4  0000              add [eax],al
00002DF6  0000              add [eax],al
00002DF8  0000              add [eax],al
00002DFA  0000              add [eax],al
00002DFC  0000              add [eax],al
00002DFE  0000              add [eax],al
00002E00  0000              add [eax],al
00002E02  0000              add [eax],al
00002E04  0000              add [eax],al
00002E06  0000              add [eax],al
00002E08  0000              add [eax],al
00002E0A  0000              add [eax],al
00002E0C  0000              add [eax],al
00002E0E  0000              add [eax],al
00002E10  0000              add [eax],al
00002E12  0000              add [eax],al
00002E14  0000              add [eax],al
00002E16  0000              add [eax],al
00002E18  0000              add [eax],al
00002E1A  0000              add [eax],al
00002E1C  0000              add [eax],al
00002E1E  0000              add [eax],al
00002E20  0000              add [eax],al
00002E22  0000              add [eax],al
00002E24  0000              add [eax],al
00002E26  0000              add [eax],al
00002E28  0000              add [eax],al
00002E2A  0000              add [eax],al
00002E2C  0000              add [eax],al
00002E2E  0000              add [eax],al
00002E30  0000              add [eax],al
00002E32  0000              add [eax],al
00002E34  0000              add [eax],al
00002E36  0000              add [eax],al
00002E38  0000              add [eax],al
00002E3A  0000              add [eax],al
00002E3C  0000              add [eax],al
00002E3E  0000              add [eax],al
00002E40  0000              add [eax],al
00002E42  0000              add [eax],al
00002E44  0000              add [eax],al
00002E46  0000              add [eax],al
00002E48  0000              add [eax],al
00002E4A  0000              add [eax],al
00002E4C  0000              add [eax],al
00002E4E  0000              add [eax],al
00002E50  0000              add [eax],al
00002E52  0000              add [eax],al
00002E54  0000              add [eax],al
00002E56  0000              add [eax],al
00002E58  0000              add [eax],al
00002E5A  0000              add [eax],al
00002E5C  0000              add [eax],al
00002E5E  0000              add [eax],al
00002E60  0000              add [eax],al
00002E62  0000              add [eax],al
00002E64  0000              add [eax],al
00002E66  0000              add [eax],al
00002E68  0000              add [eax],al
00002E6A  0000              add [eax],al
00002E6C  0000              add [eax],al
00002E6E  0000              add [eax],al
00002E70  0000              add [eax],al
00002E72  0000              add [eax],al
00002E74  0000              add [eax],al
00002E76  0000              add [eax],al
00002E78  0000              add [eax],al
00002E7A  0000              add [eax],al
00002E7C  0000              add [eax],al
00002E7E  0000              add [eax],al
00002E80  0000              add [eax],al
00002E82  0000              add [eax],al
00002E84  0000              add [eax],al
00002E86  0000              add [eax],al
00002E88  0000              add [eax],al
00002E8A  0000              add [eax],al
00002E8C  0000              add [eax],al
00002E8E  0000              add [eax],al
00002E90  0000              add [eax],al
00002E92  0000              add [eax],al
00002E94  0000              add [eax],al
00002E96  0000              add [eax],al
00002E98  0000              add [eax],al
00002E9A  0000              add [eax],al
00002E9C  0000              add [eax],al
00002E9E  0000              add [eax],al
00002EA0  0000              add [eax],al
00002EA2  0000              add [eax],al
00002EA4  0000              add [eax],al
00002EA6  0000              add [eax],al
00002EA8  0000              add [eax],al
00002EAA  0000              add [eax],al
00002EAC  0000              add [eax],al
00002EAE  0000              add [eax],al
00002EB0  0000              add [eax],al
00002EB2  0000              add [eax],al
00002EB4  0000              add [eax],al
00002EB6  0000              add [eax],al
00002EB8  0000              add [eax],al
00002EBA  0000              add [eax],al
00002EBC  0000              add [eax],al
00002EBE  0000              add [eax],al
00002EC0  0000              add [eax],al
00002EC2  0000              add [eax],al
00002EC4  0000              add [eax],al
00002EC6  0000              add [eax],al
00002EC8  0000              add [eax],al
00002ECA  0000              add [eax],al
00002ECC  0000              add [eax],al
00002ECE  0000              add [eax],al
00002ED0  0000              add [eax],al
00002ED2  0000              add [eax],al
00002ED4  0000              add [eax],al
00002ED6  0000              add [eax],al
00002ED8  0000              add [eax],al
00002EDA  0000              add [eax],al
00002EDC  0000              add [eax],al
00002EDE  0000              add [eax],al
00002EE0  0000              add [eax],al
00002EE2  0000              add [eax],al
00002EE4  0000              add [eax],al
00002EE6  0000              add [eax],al
00002EE8  0000              add [eax],al
00002EEA  0000              add [eax],al
00002EEC  0000              add [eax],al
00002EEE  0000              add [eax],al
00002EF0  0000              add [eax],al
00002EF2  0000              add [eax],al
00002EF4  0000              add [eax],al
00002EF6  0000              add [eax],al
00002EF8  0000              add [eax],al
00002EFA  0000              add [eax],al
00002EFC  0000              add [eax],al
00002EFE  0000              add [eax],al
00002F00  0000              add [eax],al
00002F02  0000              add [eax],al
00002F04  0000              add [eax],al
00002F06  0000              add [eax],al
00002F08  0000              add [eax],al
00002F0A  0000              add [eax],al
00002F0C  0000              add [eax],al
00002F0E  0000              add [eax],al
00002F10  0000              add [eax],al
00002F12  0000              add [eax],al
00002F14  0000              add [eax],al
00002F16  0000              add [eax],al
00002F18  0000              add [eax],al
00002F1A  0000              add [eax],al
00002F1C  0000              add [eax],al
00002F1E  0000              add [eax],al
00002F20  0000              add [eax],al
00002F22  0000              add [eax],al
00002F24  0000              add [eax],al
00002F26  0000              add [eax],al
00002F28  0000              add [eax],al
00002F2A  0000              add [eax],al
00002F2C  0000              add [eax],al
00002F2E  0000              add [eax],al
00002F30  0000              add [eax],al
00002F32  0000              add [eax],al
00002F34  0000              add [eax],al
00002F36  0000              add [eax],al
00002F38  0000              add [eax],al
00002F3A  0000              add [eax],al
00002F3C  0000              add [eax],al
00002F3E  0000              add [eax],al
00002F40  0000              add [eax],al
00002F42  0000              add [eax],al
00002F44  0000              add [eax],al
00002F46  0000              add [eax],al
00002F48  0000              add [eax],al
00002F4A  0000              add [eax],al
00002F4C  0000              add [eax],al
00002F4E  0000              add [eax],al
00002F50  0000              add [eax],al
00002F52  0000              add [eax],al
00002F54  0000              add [eax],al
00002F56  0000              add [eax],al
00002F58  0000              add [eax],al
00002F5A  0000              add [eax],al
00002F5C  0000              add [eax],al
00002F5E  0000              add [eax],al
00002F60  0000              add [eax],al
00002F62  0000              add [eax],al
00002F64  0000              add [eax],al
00002F66  0000              add [eax],al
00002F68  0000              add [eax],al
00002F6A  0000              add [eax],al
00002F6C  0000              add [eax],al
00002F6E  0000              add [eax],al
00002F70  0000              add [eax],al
00002F72  0000              add [eax],al
00002F74  0000              add [eax],al
00002F76  0000              add [eax],al
00002F78  0000              add [eax],al
00002F7A  0000              add [eax],al
00002F7C  0000              add [eax],al
00002F7E  0000              add [eax],al
00002F80  0000              add [eax],al
00002F82  0000              add [eax],al
00002F84  0000              add [eax],al
00002F86  0000              add [eax],al
00002F88  0000              add [eax],al
00002F8A  0000              add [eax],al
00002F8C  0000              add [eax],al
00002F8E  0000              add [eax],al
00002F90  0000              add [eax],al
00002F92  0000              add [eax],al
00002F94  0000              add [eax],al
00002F96  0000              add [eax],al
00002F98  0000              add [eax],al
00002F9A  0000              add [eax],al
00002F9C  0000              add [eax],al
00002F9E  0000              add [eax],al
00002FA0  0000              add [eax],al
00002FA2  0000              add [eax],al
00002FA4  0000              add [eax],al
00002FA6  0000              add [eax],al
00002FA8  0000              add [eax],al
00002FAA  0000              add [eax],al
00002FAC  0000              add [eax],al
00002FAE  0000              add [eax],al
00002FB0  0000              add [eax],al
00002FB2  0000              add [eax],al
00002FB4  0000              add [eax],al
00002FB6  0000              add [eax],al
00002FB8  0000              add [eax],al
00002FBA  0000              add [eax],al
00002FBC  0000              add [eax],al
00002FBE  0000              add [eax],al
00002FC0  0000              add [eax],al
00002FC2  0000              add [eax],al
00002FC4  0000              add [eax],al
00002FC6  0000              add [eax],al
00002FC8  0000              add [eax],al
00002FCA  0000              add [eax],al
00002FCC  0000              add [eax],al
00002FCE  0000              add [eax],al
00002FD0  0000              add [eax],al
00002FD2  0000              add [eax],al
00002FD4  0000              add [eax],al
00002FD6  0000              add [eax],al
00002FD8  0000              add [eax],al
00002FDA  0000              add [eax],al
00002FDC  0000              add [eax],al
00002FDE  0000              add [eax],al
00002FE0  0000              add [eax],al
00002FE2  0000              add [eax],al
00002FE4  0000              add [eax],al
00002FE6  0000              add [eax],al
00002FE8  0000              add [eax],al
00002FEA  0000              add [eax],al
00002FEC  0000              add [eax],al
00002FEE  0000              add [eax],al
00002FF0  0000              add [eax],al
00002FF2  0000              add [eax],al
00002FF4  0000              add [eax],al
00002FF6  0000              add [eax],al
00002FF8  0000              add [eax],al
00002FFA  0000              add [eax],al
00002FFC  0000              add [eax],al
00002FFE  0000              add [eax],al
00003000  0000              add [eax],al
00003002  0000              add [eax],al
00003004  0000              add [eax],al
00003006  0000              add [eax],al
00003008  0000              add [eax],al
0000300A  0000              add [eax],al
0000300C  0000              add [eax],al
0000300E  0000              add [eax],al
00003010  0000              add [eax],al
00003012  0000              add [eax],al
00003014  0000              add [eax],al
00003016  0000              add [eax],al
00003018  0000              add [eax],al
0000301A  0000              add [eax],al
0000301C  0000              add [eax],al
0000301E  0000              add [eax],al
00003020  0000              add [eax],al
00003022  0000              add [eax],al
00003024  0000              add [eax],al
00003026  0000              add [eax],al
00003028  0000              add [eax],al
0000302A  0000              add [eax],al
0000302C  0000              add [eax],al
0000302E  0000              add [eax],al
00003030  0000              add [eax],al
00003032  0000              add [eax],al
00003034  0000              add [eax],al
00003036  0000              add [eax],al
00003038  0000              add [eax],al
0000303A  0000              add [eax],al
0000303C  0000              add [eax],al
0000303E  0000              add [eax],al
00003040  0000              add [eax],al
00003042  0000              add [eax],al
00003044  0000              add [eax],al
00003046  0000              add [eax],al
00003048  0000              add [eax],al
0000304A  0000              add [eax],al
0000304C  0000              add [eax],al
0000304E  0000              add [eax],al
00003050  0000              add [eax],al
00003052  0000              add [eax],al
00003054  0000              add [eax],al
00003056  0000              add [eax],al
00003058  0000              add [eax],al
0000305A  0000              add [eax],al
0000305C  0000              add [eax],al
0000305E  0000              add [eax],al
00003060  0000              add [eax],al
00003062  0000              add [eax],al
00003064  0000              add [eax],al
00003066  0000              add [eax],al
00003068  0000              add [eax],al
0000306A  0000              add [eax],al
0000306C  0000              add [eax],al
0000306E  0000              add [eax],al
00003070  0000              add [eax],al
00003072  0000              add [eax],al
00003074  0000              add [eax],al
00003076  0000              add [eax],al
00003078  0000              add [eax],al
0000307A  0000              add [eax],al
0000307C  0000              add [eax],al
0000307E  0000              add [eax],al
00003080  0000              add [eax],al
00003082  0000              add [eax],al
00003084  0000              add [eax],al
00003086  0000              add [eax],al
00003088  0000              add [eax],al
0000308A  0000              add [eax],al
0000308C  0000              add [eax],al
0000308E  0000              add [eax],al
00003090  0000              add [eax],al
00003092  0000              add [eax],al
00003094  0000              add [eax],al
00003096  0000              add [eax],al
00003098  0000              add [eax],al
0000309A  0000              add [eax],al
0000309C  0000              add [eax],al
0000309E  0000              add [eax],al
000030A0  0000              add [eax],al
000030A2  0000              add [eax],al
000030A4  0000              add [eax],al
000030A6  0000              add [eax],al
000030A8  0000              add [eax],al
000030AA  0000              add [eax],al
000030AC  0000              add [eax],al
000030AE  0000              add [eax],al
000030B0  0000              add [eax],al
000030B2  0000              add [eax],al
000030B4  0000              add [eax],al
000030B6  0000              add [eax],al
000030B8  0000              add [eax],al
000030BA  0000              add [eax],al
000030BC  0000              add [eax],al
000030BE  0000              add [eax],al
000030C0  0000              add [eax],al
000030C2  0000              add [eax],al
000030C4  0000              add [eax],al
000030C6  0000              add [eax],al
000030C8  0000              add [eax],al
000030CA  0000              add [eax],al
000030CC  0000              add [eax],al
000030CE  0000              add [eax],al
000030D0  0000              add [eax],al
000030D2  0000              add [eax],al
000030D4  0000              add [eax],al
000030D6  0000              add [eax],al
000030D8  0000              add [eax],al
000030DA  0000              add [eax],al
000030DC  0000              add [eax],al
000030DE  0000              add [eax],al
000030E0  0000              add [eax],al
000030E2  0000              add [eax],al
000030E4  0000              add [eax],al
000030E6  0000              add [eax],al
000030E8  0000              add [eax],al
000030EA  0000              add [eax],al
000030EC  0000              add [eax],al
000030EE  0000              add [eax],al
000030F0  0000              add [eax],al
000030F2  0000              add [eax],al
000030F4  0000              add [eax],al
000030F6  0000              add [eax],al
000030F8  0000              add [eax],al
000030FA  0000              add [eax],al
000030FC  0000              add [eax],al
000030FE  0000              add [eax],al
00003100  0000              add [eax],al
00003102  0000              add [eax],al
00003104  0000              add [eax],al
00003106  0000              add [eax],al
00003108  0000              add [eax],al
0000310A  0000              add [eax],al
0000310C  0000              add [eax],al
0000310E  0000              add [eax],al
00003110  0000              add [eax],al
00003112  0000              add [eax],al
00003114  0000              add [eax],al
00003116  0000              add [eax],al
00003118  0000              add [eax],al
0000311A  0000              add [eax],al
0000311C  0000              add [eax],al
0000311E  0000              add [eax],al
00003120  0000              add [eax],al
00003122  0000              add [eax],al
00003124  0000              add [eax],al
00003126  0000              add [eax],al
00003128  0000              add [eax],al
0000312A  0000              add [eax],al
0000312C  0000              add [eax],al
0000312E  0000              add [eax],al
00003130  0000              add [eax],al
00003132  0000              add [eax],al
00003134  0000              add [eax],al
00003136  0000              add [eax],al
00003138  0000              add [eax],al
0000313A  0000              add [eax],al
0000313C  0000              add [eax],al
0000313E  0000              add [eax],al
00003140  0000              add [eax],al
00003142  0000              add [eax],al
00003144  0000              add [eax],al
00003146  0000              add [eax],al
00003148  0000              add [eax],al
0000314A  0000              add [eax],al
0000314C  0000              add [eax],al
0000314E  0000              add [eax],al
00003150  0000              add [eax],al
00003152  0000              add [eax],al
00003154  0000              add [eax],al
00003156  0000              add [eax],al
00003158  0000              add [eax],al
0000315A  0000              add [eax],al
0000315C  0000              add [eax],al
0000315E  0000              add [eax],al
00003160  0000              add [eax],al
00003162  0000              add [eax],al
00003164  0000              add [eax],al
00003166  0000              add [eax],al
00003168  0000              add [eax],al
0000316A  0000              add [eax],al
0000316C  0000              add [eax],al
0000316E  0000              add [eax],al
00003170  0000              add [eax],al
00003172  0000              add [eax],al
00003174  0000              add [eax],al
00003176  0000              add [eax],al
00003178  0000              add [eax],al
0000317A  0000              add [eax],al
0000317C  0000              add [eax],al
0000317E  0000              add [eax],al
00003180  0000              add [eax],al
00003182  0000              add [eax],al
00003184  0000              add [eax],al
00003186  0000              add [eax],al
00003188  0000              add [eax],al
0000318A  0000              add [eax],al
0000318C  0000              add [eax],al
0000318E  0000              add [eax],al
00003190  0000              add [eax],al
00003192  0000              add [eax],al
00003194  0000              add [eax],al
00003196  0000              add [eax],al
00003198  0000              add [eax],al
0000319A  0000              add [eax],al
0000319C  0000              add [eax],al
0000319E  0000              add [eax],al
000031A0  0000              add [eax],al
000031A2  0000              add [eax],al
000031A4  0000              add [eax],al
000031A6  0000              add [eax],al
000031A8  0000              add [eax],al
000031AA  0000              add [eax],al
000031AC  0000              add [eax],al
000031AE  0000              add [eax],al
000031B0  0000              add [eax],al
000031B2  0000              add [eax],al
000031B4  0000              add [eax],al
000031B6  0000              add [eax],al
000031B8  0000              add [eax],al
000031BA  0000              add [eax],al
000031BC  0000              add [eax],al
000031BE  0000              add [eax],al
000031C0  0000              add [eax],al
000031C2  0000              add [eax],al
000031C4  0000              add [eax],al
000031C6  0000              add [eax],al
000031C8  0000              add [eax],al
000031CA  0000              add [eax],al
000031CC  0000              add [eax],al
000031CE  0000              add [eax],al
000031D0  0000              add [eax],al
000031D2  0000              add [eax],al
000031D4  0000              add [eax],al
000031D6  0000              add [eax],al
000031D8  0000              add [eax],al
000031DA  0000              add [eax],al
000031DC  0000              add [eax],al
000031DE  0000              add [eax],al
000031E0  0000              add [eax],al
000031E2  0000              add [eax],al
000031E4  0000              add [eax],al
000031E6  0000              add [eax],al
000031E8  0000              add [eax],al
000031EA  0000              add [eax],al
000031EC  0000              add [eax],al
000031EE  0000              add [eax],al
000031F0  0000              add [eax],al
000031F2  0000              add [eax],al
000031F4  0000              add [eax],al
000031F6  0000              add [eax],al
000031F8  0000              add [eax],al
000031FA  0000              add [eax],al
000031FC  0000              add [eax],al
000031FE  0000              add [eax],al
00003200  0000              add [eax],al
00003202  0000              add [eax],al
00003204  0000              add [eax],al
00003206  0000              add [eax],al
00003208  0000              add [eax],al
0000320A  0000              add [eax],al
0000320C  0000              add [eax],al
0000320E  0000              add [eax],al
00003210  0000              add [eax],al
00003212  0000              add [eax],al
00003214  0000              add [eax],al
00003216  0000              add [eax],al
00003218  0000              add [eax],al
0000321A  0000              add [eax],al
0000321C  0000              add [eax],al
0000321E  0000              add [eax],al
00003220  0000              add [eax],al
00003222  0000              add [eax],al
00003224  0000              add [eax],al
00003226  0000              add [eax],al
00003228  0000              add [eax],al
0000322A  0000              add [eax],al
0000322C  0000              add [eax],al
0000322E  0000              add [eax],al
00003230  0000              add [eax],al
00003232  0000              add [eax],al
00003234  0000              add [eax],al
00003236  0000              add [eax],al
00003238  0000              add [eax],al
0000323A  0000              add [eax],al
0000323C  0000              add [eax],al
0000323E  0000              add [eax],al
00003240  0000              add [eax],al
00003242  0000              add [eax],al
00003244  0000              add [eax],al
00003246  0000              add [eax],al
00003248  0000              add [eax],al
0000324A  0000              add [eax],al
0000324C  0000              add [eax],al
0000324E  0000              add [eax],al
00003250  0000              add [eax],al
00003252  0000              add [eax],al
00003254  0000              add [eax],al
00003256  0000              add [eax],al
00003258  0000              add [eax],al
0000325A  0000              add [eax],al
0000325C  0000              add [eax],al
0000325E  0000              add [eax],al
00003260  0000              add [eax],al
00003262  0000              add [eax],al
00003264  0000              add [eax],al
00003266  0000              add [eax],al
00003268  0000              add [eax],al
0000326A  0000              add [eax],al
0000326C  0000              add [eax],al
0000326E  0000              add [eax],al
00003270  0000              add [eax],al
00003272  0000              add [eax],al
00003274  0000              add [eax],al
00003276  0000              add [eax],al
00003278  0000              add [eax],al
0000327A  0000              add [eax],al
0000327C  0000              add [eax],al
0000327E  0000              add [eax],al
00003280  0000              add [eax],al
00003282  0000              add [eax],al
00003284  0000              add [eax],al
00003286  0000              add [eax],al
00003288  0000              add [eax],al
0000328A  0000              add [eax],al
0000328C  0000              add [eax],al
0000328E  0000              add [eax],al
00003290  0000              add [eax],al
00003292  0000              add [eax],al
00003294  0000              add [eax],al
00003296  0000              add [eax],al
00003298  0000              add [eax],al
0000329A  0000              add [eax],al
0000329C  0000              add [eax],al
0000329E  0000              add [eax],al
000032A0  0000              add [eax],al
000032A2  0000              add [eax],al
000032A4  0000              add [eax],al
000032A6  0000              add [eax],al
000032A8  0000              add [eax],al
000032AA  0000              add [eax],al
000032AC  0000              add [eax],al
000032AE  0000              add [eax],al
000032B0  0000              add [eax],al
000032B2  0000              add [eax],al
000032B4  0000              add [eax],al
000032B6  0000              add [eax],al
000032B8  0000              add [eax],al
000032BA  0000              add [eax],al
000032BC  0000              add [eax],al
000032BE  0000              add [eax],al
000032C0  0000              add [eax],al
000032C2  0000              add [eax],al
000032C4  0000              add [eax],al
000032C6  0000              add [eax],al
000032C8  0000              add [eax],al
000032CA  0000              add [eax],al
000032CC  0000              add [eax],al
000032CE  0000              add [eax],al
000032D0  0000              add [eax],al
000032D2  0000              add [eax],al
000032D4  0000              add [eax],al
000032D6  0000              add [eax],al
000032D8  0000              add [eax],al
000032DA  0000              add [eax],al
000032DC  0000              add [eax],al
000032DE  0000              add [eax],al
000032E0  0000              add [eax],al
000032E2  0000              add [eax],al
000032E4  0000              add [eax],al
000032E6  0000              add [eax],al
000032E8  0000              add [eax],al
000032EA  0000              add [eax],al
000032EC  0000              add [eax],al
000032EE  0000              add [eax],al
000032F0  0000              add [eax],al
000032F2  0000              add [eax],al
000032F4  0000              add [eax],al
000032F6  0000              add [eax],al
000032F8  0000              add [eax],al
000032FA  0000              add [eax],al
000032FC  0000              add [eax],al
000032FE  0000              add [eax],al
00003300  0000              add [eax],al
00003302  0000              add [eax],al
00003304  0000              add [eax],al
00003306  0000              add [eax],al
00003308  0000              add [eax],al
0000330A  0000              add [eax],al
0000330C  0000              add [eax],al
0000330E  0000              add [eax],al
00003310  0000              add [eax],al
00003312  0000              add [eax],al
00003314  0000              add [eax],al
00003316  0000              add [eax],al
00003318  0000              add [eax],al
0000331A  0000              add [eax],al
0000331C  0000              add [eax],al
0000331E  0000              add [eax],al
00003320  0000              add [eax],al
00003322  0000              add [eax],al
00003324  0000              add [eax],al
00003326  0000              add [eax],al
00003328  0000              add [eax],al
0000332A  0000              add [eax],al
0000332C  0000              add [eax],al
0000332E  0000              add [eax],al
00003330  0000              add [eax],al
00003332  0000              add [eax],al
00003334  0000              add [eax],al
00003336  0000              add [eax],al
00003338  0000              add [eax],al
0000333A  0000              add [eax],al
0000333C  0000              add [eax],al
0000333E  0000              add [eax],al
00003340  0000              add [eax],al
00003342  0000              add [eax],al
00003344  0000              add [eax],al
00003346  0000              add [eax],al
00003348  0000              add [eax],al
0000334A  0000              add [eax],al
0000334C  0000              add [eax],al
0000334E  0000              add [eax],al
00003350  0000              add [eax],al
00003352  0000              add [eax],al
00003354  0000              add [eax],al
00003356  0000              add [eax],al
00003358  0000              add [eax],al
0000335A  0000              add [eax],al
0000335C  0000              add [eax],al
0000335E  0000              add [eax],al
00003360  0000              add [eax],al
00003362  0000              add [eax],al
00003364  0000              add [eax],al
00003366  0000              add [eax],al
00003368  0000              add [eax],al
0000336A  0000              add [eax],al
0000336C  0000              add [eax],al
0000336E  0000              add [eax],al
00003370  0000              add [eax],al
00003372  0000              add [eax],al
00003374  0000              add [eax],al
00003376  0000              add [eax],al
00003378  0000              add [eax],al
0000337A  0000              add [eax],al
0000337C  0000              add [eax],al
0000337E  0000              add [eax],al
00003380  0000              add [eax],al
00003382  0000              add [eax],al
00003384  0000              add [eax],al
00003386  0000              add [eax],al
00003388  0000              add [eax],al
0000338A  0000              add [eax],al
0000338C  0000              add [eax],al
0000338E  0000              add [eax],al
00003390  0000              add [eax],al
00003392  0000              add [eax],al
00003394  0000              add [eax],al
00003396  0000              add [eax],al
00003398  0000              add [eax],al
0000339A  0000              add [eax],al
0000339C  0000              add [eax],al
0000339E  0000              add [eax],al
000033A0  0000              add [eax],al
000033A2  0000              add [eax],al
000033A4  0000              add [eax],al
000033A6  0000              add [eax],al
000033A8  0000              add [eax],al
000033AA  0000              add [eax],al
000033AC  0000              add [eax],al
000033AE  0000              add [eax],al
000033B0  0000              add [eax],al
000033B2  0000              add [eax],al
000033B4  0000              add [eax],al
000033B6  0000              add [eax],al
000033B8  0000              add [eax],al
000033BA  0000              add [eax],al
000033BC  0000              add [eax],al
000033BE  0000              add [eax],al
000033C0  0000              add [eax],al
000033C2  0000              add [eax],al
000033C4  0000              add [eax],al
000033C6  0000              add [eax],al
000033C8  0000              add [eax],al
000033CA  0000              add [eax],al
000033CC  0000              add [eax],al
000033CE  0000              add [eax],al
000033D0  0000              add [eax],al
000033D2  0000              add [eax],al
000033D4  0000              add [eax],al
000033D6  0000              add [eax],al
000033D8  0000              add [eax],al
000033DA  0000              add [eax],al
000033DC  0000              add [eax],al
000033DE  0000              add [eax],al
000033E0  0000              add [eax],al
000033E2  0000              add [eax],al
000033E4  0000              add [eax],al
000033E6  0000              add [eax],al
000033E8  0000              add [eax],al
000033EA  0000              add [eax],al
000033EC  0000              add [eax],al
000033EE  0000              add [eax],al
000033F0  0000              add [eax],al
000033F2  0000              add [eax],al
000033F4  0000              add [eax],al
000033F6  0000              add [eax],al
000033F8  0000              add [eax],al
000033FA  0000              add [eax],al
000033FC  0000              add [eax],al
000033FE  0000              add [eax],al
00003400  0000              add [eax],al
00003402  0000              add [eax],al
00003404  0000              add [eax],al
00003406  0000              add [eax],al
00003408  0000              add [eax],al
0000340A  0000              add [eax],al
0000340C  0000              add [eax],al
0000340E  0000              add [eax],al
00003410  0000              add [eax],al
00003412  0000              add [eax],al
00003414  0000              add [eax],al
00003416  0000              add [eax],al
00003418  0000              add [eax],al
0000341A  0000              add [eax],al
0000341C  0000              add [eax],al
0000341E  0000              add [eax],al
00003420  0000              add [eax],al
00003422  0000              add [eax],al
00003424  0000              add [eax],al
00003426  0000              add [eax],al
00003428  0000              add [eax],al
0000342A  0000              add [eax],al
0000342C  0000              add [eax],al
0000342E  0000              add [eax],al
00003430  0000              add [eax],al
00003432  0000              add [eax],al
00003434  0000              add [eax],al
00003436  0000              add [eax],al
00003438  0000              add [eax],al
0000343A  0000              add [eax],al
0000343C  0000              add [eax],al
0000343E  0000              add [eax],al
00003440  0000              add [eax],al
00003442  0000              add [eax],al
00003444  0000              add [eax],al
00003446  0000              add [eax],al
00003448  0000              add [eax],al
0000344A  0000              add [eax],al
0000344C  0000              add [eax],al
0000344E  0000              add [eax],al
00003450  0000              add [eax],al
00003452  0000              add [eax],al
00003454  0000              add [eax],al
00003456  0000              add [eax],al
00003458  0000              add [eax],al
0000345A  0000              add [eax],al
0000345C  0000              add [eax],al
0000345E  0000              add [eax],al
00003460  0000              add [eax],al
00003462  0000              add [eax],al
00003464  0000              add [eax],al
00003466  0000              add [eax],al
00003468  0000              add [eax],al
0000346A  0000              add [eax],al
0000346C  0000              add [eax],al
0000346E  0000              add [eax],al
00003470  0000              add [eax],al
00003472  0000              add [eax],al
00003474  0000              add [eax],al
00003476  0000              add [eax],al
00003478  0000              add [eax],al
0000347A  0000              add [eax],al
0000347C  0000              add [eax],al
0000347E  0000              add [eax],al
00003480  0000              add [eax],al
00003482  0000              add [eax],al
00003484  0000              add [eax],al
00003486  0000              add [eax],al
00003488  0000              add [eax],al
0000348A  0000              add [eax],al
0000348C  0000              add [eax],al
0000348E  0000              add [eax],al
00003490  0000              add [eax],al
00003492  0000              add [eax],al
00003494  0000              add [eax],al
00003496  0000              add [eax],al
00003498  0000              add [eax],al
0000349A  0000              add [eax],al
0000349C  0000              add [eax],al
0000349E  0000              add [eax],al
000034A0  0000              add [eax],al
000034A2  0000              add [eax],al
000034A4  0000              add [eax],al
000034A6  0000              add [eax],al
000034A8  0000              add [eax],al
000034AA  0000              add [eax],al
000034AC  0000              add [eax],al
000034AE  0000              add [eax],al
000034B0  0000              add [eax],al
000034B2  0000              add [eax],al
000034B4  0000              add [eax],al
000034B6  0000              add [eax],al
000034B8  0000              add [eax],al
000034BA  0000              add [eax],al
000034BC  0000              add [eax],al
000034BE  0000              add [eax],al
000034C0  0000              add [eax],al
000034C2  0000              add [eax],al
000034C4  0000              add [eax],al
000034C6  0000              add [eax],al
000034C8  0000              add [eax],al
000034CA  0000              add [eax],al
000034CC  0000              add [eax],al
000034CE  0000              add [eax],al
000034D0  0000              add [eax],al
000034D2  0000              add [eax],al
000034D4  0000              add [eax],al
000034D6  0000              add [eax],al
000034D8  0000              add [eax],al
000034DA  0000              add [eax],al
000034DC  0000              add [eax],al
000034DE  0000              add [eax],al
000034E0  0000              add [eax],al
000034E2  0000              add [eax],al
000034E4  0000              add [eax],al
000034E6  0000              add [eax],al
000034E8  0000              add [eax],al
000034EA  0000              add [eax],al
000034EC  0000              add [eax],al
000034EE  0000              add [eax],al
000034F0  0000              add [eax],al
000034F2  0000              add [eax],al
000034F4  0000              add [eax],al
000034F6  0000              add [eax],al
000034F8  0000              add [eax],al
000034FA  0000              add [eax],al
000034FC  0000              add [eax],al
000034FE  0000              add [eax],al
00003500  0000              add [eax],al
00003502  0000              add [eax],al
00003504  0000              add [eax],al
00003506  0000              add [eax],al
00003508  0000              add [eax],al
0000350A  0000              add [eax],al
0000350C  0000              add [eax],al
0000350E  0000              add [eax],al
00003510  0000              add [eax],al
00003512  0000              add [eax],al
00003514  0000              add [eax],al
00003516  0000              add [eax],al
00003518  0000              add [eax],al
0000351A  0000              add [eax],al
0000351C  0000              add [eax],al
0000351E  0000              add [eax],al
00003520  0000              add [eax],al
00003522  0000              add [eax],al
00003524  0000              add [eax],al
00003526  0000              add [eax],al
00003528  0000              add [eax],al
0000352A  0000              add [eax],al
0000352C  0000              add [eax],al
0000352E  0000              add [eax],al
00003530  0000              add [eax],al
00003532  0000              add [eax],al
00003534  0000              add [eax],al
00003536  0000              add [eax],al
00003538  0000              add [eax],al
0000353A  0000              add [eax],al
0000353C  0000              add [eax],al
0000353E  0000              add [eax],al
00003540  0000              add [eax],al
00003542  0000              add [eax],al
00003544  0000              add [eax],al
00003546  0000              add [eax],al
00003548  0000              add [eax],al
0000354A  0000              add [eax],al
0000354C  0000              add [eax],al
0000354E  0000              add [eax],al
00003550  0000              add [eax],al
00003552  0000              add [eax],al
00003554  0000              add [eax],al
00003556  0000              add [eax],al
00003558  0000              add [eax],al
0000355A  0000              add [eax],al
0000355C  0000              add [eax],al
0000355E  0000              add [eax],al
00003560  0000              add [eax],al
00003562  0000              add [eax],al
00003564  0000              add [eax],al
00003566  0000              add [eax],al
00003568  0000              add [eax],al
0000356A  0000              add [eax],al
0000356C  0000              add [eax],al
0000356E  0000              add [eax],al
00003570  0000              add [eax],al
00003572  0000              add [eax],al
00003574  0000              add [eax],al
00003576  0000              add [eax],al
00003578  0000              add [eax],al
0000357A  0000              add [eax],al
0000357C  0000              add [eax],al
0000357E  0000              add [eax],al
00003580  0000              add [eax],al
00003582  0000              add [eax],al
00003584  0000              add [eax],al
00003586  0000              add [eax],al
00003588  0000              add [eax],al
0000358A  0000              add [eax],al
0000358C  0000              add [eax],al
0000358E  0000              add [eax],al
00003590  0000              add [eax],al
00003592  0000              add [eax],al
00003594  0000              add [eax],al
00003596  0000              add [eax],al
00003598  0000              add [eax],al
0000359A  0000              add [eax],al
0000359C  0000              add [eax],al
0000359E  0000              add [eax],al
000035A0  0000              add [eax],al
000035A2  0000              add [eax],al
000035A4  0000              add [eax],al
000035A6  0000              add [eax],al
000035A8  0000              add [eax],al
000035AA  0000              add [eax],al
000035AC  0000              add [eax],al
000035AE  0000              add [eax],al
000035B0  0000              add [eax],al
000035B2  0000              add [eax],al
000035B4  0000              add [eax],al
000035B6  0000              add [eax],al
000035B8  0000              add [eax],al
000035BA  0000              add [eax],al
000035BC  0000              add [eax],al
000035BE  0000              add [eax],al
000035C0  0000              add [eax],al
000035C2  0000              add [eax],al
000035C4  0000              add [eax],al
000035C6  0000              add [eax],al
000035C8  0000              add [eax],al
000035CA  0000              add [eax],al
000035CC  0000              add [eax],al
000035CE  0000              add [eax],al
000035D0  0000              add [eax],al
000035D2  0000              add [eax],al
000035D4  0000              add [eax],al
000035D6  0000              add [eax],al
000035D8  0000              add [eax],al
000035DA  0000              add [eax],al
000035DC  0000              add [eax],al
000035DE  0000              add [eax],al
000035E0  0000              add [eax],al
000035E2  0000              add [eax],al
000035E4  0000              add [eax],al
000035E6  0000              add [eax],al
000035E8  0000              add [eax],al
000035EA  0000              add [eax],al
000035EC  0000              add [eax],al
000035EE  0000              add [eax],al
000035F0  0000              add [eax],al
000035F2  0000              add [eax],al
000035F4  0000              add [eax],al
000035F6  0000              add [eax],al
000035F8  0000              add [eax],al
000035FA  0000              add [eax],al
000035FC  0000              add [eax],al
000035FE  0000              add [eax],al
00003600  0000              add [eax],al
00003602  0000              add [eax],al
00003604  0000              add [eax],al
00003606  0000              add [eax],al
00003608  0000              add [eax],al
0000360A  0000              add [eax],al
0000360C  0000              add [eax],al
0000360E  0000              add [eax],al
00003610  0000              add [eax],al
00003612  0000              add [eax],al
00003614  0000              add [eax],al
00003616  0000              add [eax],al
00003618  0000              add [eax],al
0000361A  0000              add [eax],al
0000361C  0000              add [eax],al
0000361E  0000              add [eax],al
00003620  0000              add [eax],al
00003622  0000              add [eax],al
00003624  0000              add [eax],al
00003626  0000              add [eax],al
00003628  0000              add [eax],al
0000362A  0000              add [eax],al
0000362C  0000              add [eax],al
0000362E  0000              add [eax],al
00003630  0000              add [eax],al
00003632  0000              add [eax],al
00003634  0000              add [eax],al
00003636  0000              add [eax],al
00003638  0000              add [eax],al
0000363A  0000              add [eax],al
0000363C  0000              add [eax],al
0000363E  0000              add [eax],al
00003640  0000              add [eax],al
00003642  0000              add [eax],al
00003644  0000              add [eax],al
00003646  0000              add [eax],al
00003648  0000              add [eax],al
0000364A  0000              add [eax],al
0000364C  0000              add [eax],al
0000364E  0000              add [eax],al
00003650  0000              add [eax],al
00003652  0000              add [eax],al
00003654  0000              add [eax],al
00003656  0000              add [eax],al
00003658  0000              add [eax],al
0000365A  0000              add [eax],al
0000365C  0000              add [eax],al
0000365E  0000              add [eax],al
00003660  0000              add [eax],al
00003662  0000              add [eax],al
00003664  0000              add [eax],al
00003666  0000              add [eax],al
00003668  0000              add [eax],al
0000366A  0000              add [eax],al
0000366C  0000              add [eax],al
0000366E  0000              add [eax],al
00003670  0000              add [eax],al
00003672  0000              add [eax],al
00003674  0000              add [eax],al
00003676  0000              add [eax],al
00003678  0000              add [eax],al
0000367A  0000              add [eax],al
0000367C  0000              add [eax],al
0000367E  0000              add [eax],al
00003680  0000              add [eax],al
00003682  0000              add [eax],al
00003684  0000              add [eax],al
00003686  0000              add [eax],al
00003688  0000              add [eax],al
0000368A  0000              add [eax],al
0000368C  0000              add [eax],al
0000368E  0000              add [eax],al
00003690  0000              add [eax],al
00003692  0000              add [eax],al
00003694  0000              add [eax],al
00003696  0000              add [eax],al
00003698  0000              add [eax],al
0000369A  0000              add [eax],al
0000369C  0000              add [eax],al
0000369E  0000              add [eax],al
000036A0  0000              add [eax],al
000036A2  0000              add [eax],al
000036A4  0000              add [eax],al
000036A6  0000              add [eax],al
000036A8  0000              add [eax],al
000036AA  0000              add [eax],al
000036AC  0000              add [eax],al
000036AE  0000              add [eax],al
000036B0  0000              add [eax],al
000036B2  0000              add [eax],al
000036B4  0000              add [eax],al
000036B6  0000              add [eax],al
000036B8  0000              add [eax],al
000036BA  0000              add [eax],al
000036BC  0000              add [eax],al
000036BE  0000              add [eax],al
000036C0  0000              add [eax],al
000036C2  0000              add [eax],al
000036C4  0000              add [eax],al
000036C6  0000              add [eax],al
000036C8  0000              add [eax],al
000036CA  0000              add [eax],al
000036CC  0000              add [eax],al
000036CE  0000              add [eax],al
000036D0  0000              add [eax],al
000036D2  0000              add [eax],al
000036D4  0000              add [eax],al
000036D6  0000              add [eax],al
000036D8  0000              add [eax],al
000036DA  0000              add [eax],al
000036DC  0000              add [eax],al
000036DE  0000              add [eax],al
000036E0  0000              add [eax],al
000036E2  0000              add [eax],al
000036E4  0000              add [eax],al
000036E6  0000              add [eax],al
000036E8  0000              add [eax],al
000036EA  0000              add [eax],al
000036EC  0000              add [eax],al
000036EE  0000              add [eax],al
000036F0  0000              add [eax],al
000036F2  0000              add [eax],al
000036F4  0000              add [eax],al
000036F6  0000              add [eax],al
000036F8  0000              add [eax],al
000036FA  0000              add [eax],al
000036FC  0000              add [eax],al
000036FE  0000              add [eax],al
00003700  0000              add [eax],al
00003702  0000              add [eax],al
00003704  0000              add [eax],al
00003706  0000              add [eax],al
00003708  0000              add [eax],al
0000370A  0000              add [eax],al
0000370C  0000              add [eax],al
0000370E  0000              add [eax],al
00003710  0000              add [eax],al
00003712  0000              add [eax],al
00003714  0000              add [eax],al
00003716  0000              add [eax],al
00003718  0000              add [eax],al
0000371A  0000              add [eax],al
0000371C  0000              add [eax],al
0000371E  0000              add [eax],al
00003720  0000              add [eax],al
00003722  0000              add [eax],al
00003724  0000              add [eax],al
00003726  0000              add [eax],al
00003728  0000              add [eax],al
0000372A  0000              add [eax],al
0000372C  0000              add [eax],al
0000372E  0000              add [eax],al
00003730  0000              add [eax],al
00003732  0000              add [eax],al
00003734  0000              add [eax],al
00003736  0000              add [eax],al
00003738  0000              add [eax],al
0000373A  0000              add [eax],al
0000373C  0000              add [eax],al
0000373E  0000              add [eax],al
00003740  0000              add [eax],al
00003742  0000              add [eax],al
00003744  0000              add [eax],al
00003746  0000              add [eax],al
00003748  0000              add [eax],al
0000374A  0000              add [eax],al
0000374C  0000              add [eax],al
0000374E  0000              add [eax],al
00003750  0000              add [eax],al
00003752  0000              add [eax],al
00003754  0000              add [eax],al
00003756  0000              add [eax],al
00003758  0000              add [eax],al
0000375A  0000              add [eax],al
0000375C  0000              add [eax],al
0000375E  0000              add [eax],al
00003760  0000              add [eax],al
00003762  0000              add [eax],al
00003764  0000              add [eax],al
00003766  0000              add [eax],al
00003768  0000              add [eax],al
0000376A  0000              add [eax],al
0000376C  0000              add [eax],al
0000376E  0000              add [eax],al
00003770  0000              add [eax],al
00003772  0000              add [eax],al
00003774  0000              add [eax],al
00003776  0000              add [eax],al
00003778  0000              add [eax],al
0000377A  0000              add [eax],al
0000377C  0000              add [eax],al
0000377E  0000              add [eax],al
00003780  0000              add [eax],al
00003782  0000              add [eax],al
00003784  0000              add [eax],al
00003786  0000              add [eax],al
00003788  0000              add [eax],al
0000378A  0000              add [eax],al
0000378C  0000              add [eax],al
0000378E  0000              add [eax],al
00003790  0000              add [eax],al
00003792  0000              add [eax],al
00003794  0000              add [eax],al
00003796  0000              add [eax],al
00003798  0000              add [eax],al
0000379A  0000              add [eax],al
0000379C  0000              add [eax],al
0000379E  0000              add [eax],al
000037A0  0000              add [eax],al
000037A2  0000              add [eax],al
000037A4  0000              add [eax],al
000037A6  0000              add [eax],al
000037A8  0000              add [eax],al
000037AA  0000              add [eax],al
000037AC  0000              add [eax],al
000037AE  0000              add [eax],al
000037B0  0000              add [eax],al
000037B2  0000              add [eax],al
000037B4  0000              add [eax],al
000037B6  0000              add [eax],al
000037B8  0000              add [eax],al
000037BA  0000              add [eax],al
000037BC  0000              add [eax],al
000037BE  0000              add [eax],al
000037C0  0000              add [eax],al
000037C2  0000              add [eax],al
000037C4  0000              add [eax],al
000037C6  0000              add [eax],al
000037C8  0000              add [eax],al
000037CA  0000              add [eax],al
000037CC  0000              add [eax],al
000037CE  0000              add [eax],al
000037D0  0000              add [eax],al
000037D2  0000              add [eax],al
000037D4  0000              add [eax],al
000037D6  0000              add [eax],al
000037D8  0000              add [eax],al
000037DA  0000              add [eax],al
000037DC  0000              add [eax],al
000037DE  0000              add [eax],al
000037E0  0000              add [eax],al
000037E2  0000              add [eax],al
000037E4  0000              add [eax],al
000037E6  0000              add [eax],al
000037E8  0000              add [eax],al
000037EA  0000              add [eax],al
000037EC  0000              add [eax],al
000037EE  0000              add [eax],al
000037F0  0000              add [eax],al
000037F2  0000              add [eax],al
000037F4  0000              add [eax],al
000037F6  0000              add [eax],al
000037F8  0000              add [eax],al
000037FA  0000              add [eax],al
000037FC  0000              add [eax],al
000037FE  0000              add [eax],al
00003800  0000              add [eax],al
00003802  0000              add [eax],al
00003804  0000              add [eax],al
00003806  0000              add [eax],al
00003808  0000              add [eax],al
0000380A  0000              add [eax],al
0000380C  0000              add [eax],al
0000380E  0000              add [eax],al
00003810  0000              add [eax],al
00003812  0000              add [eax],al
00003814  0000              add [eax],al
00003816  0000              add [eax],al
00003818  0000              add [eax],al
0000381A  0000              add [eax],al
0000381C  0000              add [eax],al
0000381E  0000              add [eax],al
00003820  0000              add [eax],al
00003822  0000              add [eax],al
00003824  0000              add [eax],al
00003826  0000              add [eax],al
00003828  0000              add [eax],al
0000382A  0000              add [eax],al
0000382C  0000              add [eax],al
0000382E  0000              add [eax],al
00003830  0000              add [eax],al
00003832  0000              add [eax],al
00003834  0000              add [eax],al
00003836  0000              add [eax],al
00003838  0000              add [eax],al
0000383A  0000              add [eax],al
0000383C  0000              add [eax],al
0000383E  0000              add [eax],al
00003840  0000              add [eax],al
00003842  0000              add [eax],al
00003844  0000              add [eax],al
00003846  0000              add [eax],al
00003848  0000              add [eax],al
0000384A  0000              add [eax],al
0000384C  0000              add [eax],al
0000384E  0000              add [eax],al
00003850  0000              add [eax],al
00003852  0000              add [eax],al
00003854  0000              add [eax],al
00003856  0000              add [eax],al
00003858  0000              add [eax],al
0000385A  0000              add [eax],al
0000385C  0000              add [eax],al
0000385E  0000              add [eax],al
00003860  0000              add [eax],al
00003862  0000              add [eax],al
00003864  0000              add [eax],al
00003866  0000              add [eax],al
00003868  0000              add [eax],al
0000386A  0000              add [eax],al
0000386C  0000              add [eax],al
0000386E  0000              add [eax],al
00003870  0000              add [eax],al
00003872  0000              add [eax],al
00003874  0000              add [eax],al
00003876  0000              add [eax],al
00003878  0000              add [eax],al
0000387A  0000              add [eax],al
0000387C  0000              add [eax],al
0000387E  0000              add [eax],al
00003880  0000              add [eax],al
00003882  0000              add [eax],al
00003884  0000              add [eax],al
00003886  0000              add [eax],al
00003888  0000              add [eax],al
0000388A  0000              add [eax],al
0000388C  0000              add [eax],al
0000388E  0000              add [eax],al
00003890  0000              add [eax],al
00003892  0000              add [eax],al
00003894  0000              add [eax],al
00003896  0000              add [eax],al
00003898  0000              add [eax],al
0000389A  0000              add [eax],al
0000389C  0000              add [eax],al
0000389E  0000              add [eax],al
000038A0  0000              add [eax],al
000038A2  0000              add [eax],al
000038A4  0000              add [eax],al
000038A6  0000              add [eax],al
000038A8  0000              add [eax],al
000038AA  0000              add [eax],al
000038AC  0000              add [eax],al
000038AE  0000              add [eax],al
000038B0  0000              add [eax],al
000038B2  0000              add [eax],al
000038B4  0000              add [eax],al
000038B6  0000              add [eax],al
000038B8  0000              add [eax],al
000038BA  0000              add [eax],al
000038BC  0000              add [eax],al
000038BE  0000              add [eax],al
000038C0  0000              add [eax],al
000038C2  0000              add [eax],al
000038C4  0000              add [eax],al
000038C6  0000              add [eax],al
000038C8  0000              add [eax],al
000038CA  0000              add [eax],al
000038CC  0000              add [eax],al
000038CE  0000              add [eax],al
000038D0  0000              add [eax],al
000038D2  0000              add [eax],al
000038D4  0000              add [eax],al
000038D6  0000              add [eax],al
000038D8  0000              add [eax],al
000038DA  0000              add [eax],al
000038DC  0000              add [eax],al
000038DE  0000              add [eax],al
000038E0  0000              add [eax],al
000038E2  0000              add [eax],al
000038E4  0000              add [eax],al
000038E6  0000              add [eax],al
000038E8  0000              add [eax],al
000038EA  0000              add [eax],al
000038EC  0000              add [eax],al
000038EE  0000              add [eax],al
000038F0  0000              add [eax],al
000038F2  0000              add [eax],al
000038F4  0000              add [eax],al
000038F6  0000              add [eax],al
000038F8  0000              add [eax],al
000038FA  0000              add [eax],al
000038FC  0000              add [eax],al
000038FE  0000              add [eax],al
00003900  0000              add [eax],al
00003902  0000              add [eax],al
00003904  0000              add [eax],al
00003906  0000              add [eax],al
00003908  0000              add [eax],al
0000390A  0000              add [eax],al
0000390C  0000              add [eax],al
0000390E  0000              add [eax],al
00003910  0000              add [eax],al
00003912  0000              add [eax],al
00003914  0000              add [eax],al
00003916  0000              add [eax],al
00003918  0000              add [eax],al
0000391A  0000              add [eax],al
0000391C  0000              add [eax],al
0000391E  0000              add [eax],al
00003920  0000              add [eax],al
00003922  0000              add [eax],al
00003924  0000              add [eax],al
00003926  0000              add [eax],al
00003928  0000              add [eax],al
0000392A  0000              add [eax],al
0000392C  0000              add [eax],al
0000392E  0000              add [eax],al
00003930  0000              add [eax],al
00003932  0000              add [eax],al
00003934  0000              add [eax],al
00003936  0000              add [eax],al
00003938  0000              add [eax],al
0000393A  0000              add [eax],al
0000393C  0000              add [eax],al
0000393E  0000              add [eax],al
00003940  0000              add [eax],al
00003942  0000              add [eax],al
00003944  0000              add [eax],al
00003946  0000              add [eax],al
00003948  0000              add [eax],al
0000394A  0000              add [eax],al
0000394C  0000              add [eax],al
0000394E  0000              add [eax],al
00003950  0000              add [eax],al
00003952  0000              add [eax],al
00003954  0000              add [eax],al
00003956  0000              add [eax],al
00003958  0000              add [eax],al
0000395A  0000              add [eax],al
0000395C  0000              add [eax],al
0000395E  0000              add [eax],al
00003960  0000              add [eax],al
00003962  0000              add [eax],al
00003964  0000              add [eax],al
00003966  0000              add [eax],al
00003968  0000              add [eax],al
0000396A  0000              add [eax],al
0000396C  0000              add [eax],al
0000396E  0000              add [eax],al
00003970  0000              add [eax],al
00003972  0000              add [eax],al
00003974  0000              add [eax],al
00003976  0000              add [eax],al
00003978  0000              add [eax],al
0000397A  0000              add [eax],al
0000397C  0000              add [eax],al
0000397E  0000              add [eax],al
00003980  0000              add [eax],al
00003982  0000              add [eax],al
00003984  0000              add [eax],al
00003986  0000              add [eax],al
00003988  0000              add [eax],al
0000398A  0000              add [eax],al
0000398C  0000              add [eax],al
0000398E  0000              add [eax],al
00003990  0000              add [eax],al
00003992  0000              add [eax],al
00003994  0000              add [eax],al
00003996  0000              add [eax],al
00003998  0000              add [eax],al
0000399A  0000              add [eax],al
0000399C  0000              add [eax],al
0000399E  0000              add [eax],al
000039A0  0000              add [eax],al
000039A2  0000              add [eax],al
000039A4  0000              add [eax],al
000039A6  0000              add [eax],al
000039A8  0000              add [eax],al
000039AA  0000              add [eax],al
000039AC  0000              add [eax],al
000039AE  0000              add [eax],al
000039B0  0000              add [eax],al
000039B2  0000              add [eax],al
000039B4  0000              add [eax],al
000039B6  0000              add [eax],al
000039B8  0000              add [eax],al
000039BA  0000              add [eax],al
000039BC  0000              add [eax],al
000039BE  0000              add [eax],al
000039C0  0000              add [eax],al
000039C2  0000              add [eax],al
000039C4  0000              add [eax],al
000039C6  0000              add [eax],al
000039C8  0000              add [eax],al
000039CA  0000              add [eax],al
000039CC  0000              add [eax],al
000039CE  0000              add [eax],al
000039D0  0000              add [eax],al
000039D2  0000              add [eax],al
000039D4  0000              add [eax],al
000039D6  0000              add [eax],al
000039D8  0000              add [eax],al
000039DA  0000              add [eax],al
000039DC  0000              add [eax],al
000039DE  0000              add [eax],al
000039E0  0000              add [eax],al
000039E2  0000              add [eax],al
000039E4  0000              add [eax],al
000039E6  0000              add [eax],al
000039E8  0000              add [eax],al
000039EA  0000              add [eax],al
000039EC  0000              add [eax],al
000039EE  0000              add [eax],al
000039F0  0000              add [eax],al
000039F2  0000              add [eax],al
000039F4  0000              add [eax],al
000039F6  0000              add [eax],al
000039F8  0000              add [eax],al
000039FA  0000              add [eax],al
000039FC  0000              add [eax],al
000039FE  0000              add [eax],al
00003A00  0000              add [eax],al
00003A02  0000              add [eax],al
00003A04  0000              add [eax],al
00003A06  0000              add [eax],al
00003A08  0000              add [eax],al
00003A0A  0000              add [eax],al
00003A0C  0000              add [eax],al
00003A0E  0000              add [eax],al
00003A10  0000              add [eax],al
00003A12  0000              add [eax],al
00003A14  0000              add [eax],al
00003A16  0000              add [eax],al
00003A18  0000              add [eax],al
00003A1A  0000              add [eax],al
00003A1C  0000              add [eax],al
00003A1E  0000              add [eax],al
00003A20  0000              add [eax],al
00003A22  0000              add [eax],al
00003A24  0000              add [eax],al
00003A26  0000              add [eax],al
00003A28  0000              add [eax],al
00003A2A  0000              add [eax],al
00003A2C  0000              add [eax],al
00003A2E  0000              add [eax],al
00003A30  0000              add [eax],al
00003A32  0000              add [eax],al
00003A34  0000              add [eax],al
00003A36  0000              add [eax],al
00003A38  0000              add [eax],al
00003A3A  0000              add [eax],al
00003A3C  0000              add [eax],al
00003A3E  0000              add [eax],al
00003A40  0000              add [eax],al
00003A42  0000              add [eax],al
00003A44  0000              add [eax],al
00003A46  0000              add [eax],al
00003A48  0000              add [eax],al
00003A4A  0000              add [eax],al
00003A4C  0000              add [eax],al
00003A4E  0000              add [eax],al
00003A50  0000              add [eax],al
00003A52  0000              add [eax],al
00003A54  0000              add [eax],al
00003A56  0000              add [eax],al
00003A58  0000              add [eax],al
00003A5A  0000              add [eax],al
00003A5C  0000              add [eax],al
00003A5E  0000              add [eax],al
00003A60  0000              add [eax],al
00003A62  0000              add [eax],al
00003A64  0000              add [eax],al
00003A66  0000              add [eax],al
00003A68  0000              add [eax],al
00003A6A  0000              add [eax],al
00003A6C  0000              add [eax],al
00003A6E  0000              add [eax],al
00003A70  0000              add [eax],al
00003A72  0000              add [eax],al
00003A74  0000              add [eax],al
00003A76  0000              add [eax],al
00003A78  0000              add [eax],al
00003A7A  0000              add [eax],al
00003A7C  0000              add [eax],al
00003A7E  0000              add [eax],al
00003A80  0000              add [eax],al
00003A82  0000              add [eax],al
00003A84  0000              add [eax],al
00003A86  0000              add [eax],al
00003A88  0000              add [eax],al
00003A8A  0000              add [eax],al
00003A8C  0000              add [eax],al
00003A8E  0000              add [eax],al
00003A90  0000              add [eax],al
00003A92  0000              add [eax],al
00003A94  0000              add [eax],al
00003A96  0000              add [eax],al
00003A98  0000              add [eax],al
00003A9A  0000              add [eax],al
00003A9C  0000              add [eax],al
00003A9E  0000              add [eax],al
00003AA0  0000              add [eax],al
00003AA2  0000              add [eax],al
00003AA4  00800A004865      add [eax+0x6548000a],al
00003AAA  6C                insb
00003AAB  6C                insb
00003AAC  6F                outsd
00003AAD  20576F            and [edi+0x6f],dl
00003AB0  726C              jc 0x3b1e
00003AB2  642120            and [fs:eax],esp
00003AB5  0000              add [eax],al
00003AB7  0007              add [edi],al
00003AB9  0000              add [eax],al
00003ABB  0030              add [eax],dh
00003ABD  3132              xor [edx],esi
00003ABF  33343536373839    xor esi,[esi+0x39383736]
00003AC6  41                inc ecx
00003AC7  42                inc edx
00003AC8  43                inc ebx
00003AC9  44                inc esp
00003ACA  45                inc ebp
00003ACB  46                inc esi
00003ACC  0000              add [eax],al
00003ACE  0000              add [eax],al
00003AD0  0000              add [eax],al
00003AD2  1000              adc [eax],al
00003AD4  0001              add [ecx],al
00003AD6  1000              adc [eax],al
00003AD8  204D62            and [ebp+0x62],cl
00003ADB  206F66            and [edi+0x66],ch
00003ADE  205241            and [edx+0x41],dl
00003AE1  4D                dec ebp
00003AE2  20646574          and [ebp+0x74],ah
00003AE6  6563746564        arpl [gs:ebp+0x64],si
00003AEB  0A00              or al,[eax]
00003AED  0000              add [eax],al
00003AEF  0020              add [eax],ah
00003AF1  4D                dec ebp
00003AF2  6220              bound esp,[eax]
00003AF4  6F                outsd
00003AF5  66205241          o16 and [edx+0x41],dl
00003AF9  4D                dec ebp
00003AFA  20646574          and [ebp+0x74],ah
00003AFE  6563746564        arpl [gs:ebp+0x64],si
00003B03  0A00              or al,[eax]
00003B05  003A              add [edx],bh
00003B07  2000              and [eax],al
00003B09  0A00              or al,[eax]
00003B0B  0001              add [ecx],al
00003B0D  0000              add [eax],al
00003B0F  0000              add [eax],al
00003B11  0027              add [edi],ah
00003B13  000402            add [edx+eax],al
00003B16  1000              adc [eax],al
